ARM GAS  /tmp/cc4ImuJe.s 			page 1


   1              		.cpu cortex-m4
   2              		.arch armv7e-m
   3              		.fpu fpv4-sp-d16
   4              		.eabi_attribute 27, 1
   5              		.eabi_attribute 28, 1
   6              		.eabi_attribute 20, 1
   7              		.eabi_attribute 21, 1
   8              		.eabi_attribute 23, 3
   9              		.eabi_attribute 24, 1
  10              		.eabi_attribute 25, 1
  11              		.eabi_attribute 26, 1
  12              		.eabi_attribute 30, 1
  13              		.eabi_attribute 34, 1
  14              		.eabi_attribute 18, 4
  15              		.file	"stm32f4xx_hal_rcc.c"
  16              		.text
  17              	.Ltext0:
  18              		.cfi_sections	.debug_frame
  19              		.file 1 "Drivers/STM32F4xx_HAL_Driver/Src/stm32f4xx_hal_rcc.c"
  20              		.section	.text.HAL_RCC_DeInit,"ax",%progbits
  21              		.align	1
  22              		.weak	HAL_RCC_DeInit
  23              		.syntax unified
  24              		.thumb
  25              		.thumb_func
  27              	HAL_RCC_DeInit:
  28              	.LFB130:
   1:Drivers/STM32F4xx_HAL_Driver/Src/stm32f4xx_hal_rcc.c **** /**
   2:Drivers/STM32F4xx_HAL_Driver/Src/stm32f4xx_hal_rcc.c ****   ******************************************************************************
   3:Drivers/STM32F4xx_HAL_Driver/Src/stm32f4xx_hal_rcc.c ****   * @file    stm32f4xx_hal_rcc.c
   4:Drivers/STM32F4xx_HAL_Driver/Src/stm32f4xx_hal_rcc.c ****   * @author  MCD Application Team
   5:Drivers/STM32F4xx_HAL_Driver/Src/stm32f4xx_hal_rcc.c ****   * @brief   RCC HAL module driver.
   6:Drivers/STM32F4xx_HAL_Driver/Src/stm32f4xx_hal_rcc.c ****   *          This file provides firmware functions to manage the following
   7:Drivers/STM32F4xx_HAL_Driver/Src/stm32f4xx_hal_rcc.c ****   *          functionalities of the Reset and Clock Control (RCC) peripheral:
   8:Drivers/STM32F4xx_HAL_Driver/Src/stm32f4xx_hal_rcc.c ****   *           + Initialization and de-initialization functions
   9:Drivers/STM32F4xx_HAL_Driver/Src/stm32f4xx_hal_rcc.c ****   *           + Peripheral Control functions
  10:Drivers/STM32F4xx_HAL_Driver/Src/stm32f4xx_hal_rcc.c ****   *
  11:Drivers/STM32F4xx_HAL_Driver/Src/stm32f4xx_hal_rcc.c ****   @verbatim
  12:Drivers/STM32F4xx_HAL_Driver/Src/stm32f4xx_hal_rcc.c ****   ==============================================================================
  13:Drivers/STM32F4xx_HAL_Driver/Src/stm32f4xx_hal_rcc.c ****                       ##### RCC specific features #####
  14:Drivers/STM32F4xx_HAL_Driver/Src/stm32f4xx_hal_rcc.c ****   ==============================================================================
  15:Drivers/STM32F4xx_HAL_Driver/Src/stm32f4xx_hal_rcc.c ****     [..]
  16:Drivers/STM32F4xx_HAL_Driver/Src/stm32f4xx_hal_rcc.c ****       After reset the device is running from Internal High Speed oscillator
  17:Drivers/STM32F4xx_HAL_Driver/Src/stm32f4xx_hal_rcc.c ****       (HSI 16MHz) with Flash 0 wait state, Flash prefetch buffer, D-Cache
  18:Drivers/STM32F4xx_HAL_Driver/Src/stm32f4xx_hal_rcc.c ****       and I-Cache are disabled, and all peripherals are off except internal
  19:Drivers/STM32F4xx_HAL_Driver/Src/stm32f4xx_hal_rcc.c ****       SRAM, Flash and JTAG.
  20:Drivers/STM32F4xx_HAL_Driver/Src/stm32f4xx_hal_rcc.c ****       (+) There is no prescaler on High speed (AHB) and Low speed (APB) busses;
  21:Drivers/STM32F4xx_HAL_Driver/Src/stm32f4xx_hal_rcc.c ****           all peripherals mapped on these busses are running at HSI speed.
  22:Drivers/STM32F4xx_HAL_Driver/Src/stm32f4xx_hal_rcc.c ****       (+) The clock for all peripherals is switched off, except the SRAM and FLASH.
  23:Drivers/STM32F4xx_HAL_Driver/Src/stm32f4xx_hal_rcc.c ****       (+) All GPIOs are in input floating state, except the JTAG pins which
  24:Drivers/STM32F4xx_HAL_Driver/Src/stm32f4xx_hal_rcc.c ****           are assigned to be used for debug purpose.
  25:Drivers/STM32F4xx_HAL_Driver/Src/stm32f4xx_hal_rcc.c **** 
  26:Drivers/STM32F4xx_HAL_Driver/Src/stm32f4xx_hal_rcc.c ****     [..]
  27:Drivers/STM32F4xx_HAL_Driver/Src/stm32f4xx_hal_rcc.c ****       Once the device started from reset, the user application has to:
  28:Drivers/STM32F4xx_HAL_Driver/Src/stm32f4xx_hal_rcc.c ****       (+) Configure the clock source to be used to drive the System clock
  29:Drivers/STM32F4xx_HAL_Driver/Src/stm32f4xx_hal_rcc.c ****           (if the application needs higher frequency/performance)
  30:Drivers/STM32F4xx_HAL_Driver/Src/stm32f4xx_hal_rcc.c ****       (+) Configure the System clock frequency and Flash settings
ARM GAS  /tmp/cc4ImuJe.s 			page 2


  31:Drivers/STM32F4xx_HAL_Driver/Src/stm32f4xx_hal_rcc.c ****       (+) Configure the AHB and APB busses prescalers
  32:Drivers/STM32F4xx_HAL_Driver/Src/stm32f4xx_hal_rcc.c ****       (+) Enable the clock for the peripheral(s) to be used
  33:Drivers/STM32F4xx_HAL_Driver/Src/stm32f4xx_hal_rcc.c ****       (+) Configure the clock source(s) for peripherals which clocks are not
  34:Drivers/STM32F4xx_HAL_Driver/Src/stm32f4xx_hal_rcc.c ****           derived from the System clock (I2S, RTC, ADC, USB OTG FS/SDIO/RNG)
  35:Drivers/STM32F4xx_HAL_Driver/Src/stm32f4xx_hal_rcc.c **** 
  36:Drivers/STM32F4xx_HAL_Driver/Src/stm32f4xx_hal_rcc.c ****                       ##### RCC Limitations #####
  37:Drivers/STM32F4xx_HAL_Driver/Src/stm32f4xx_hal_rcc.c ****   ==============================================================================
  38:Drivers/STM32F4xx_HAL_Driver/Src/stm32f4xx_hal_rcc.c ****     [..]
  39:Drivers/STM32F4xx_HAL_Driver/Src/stm32f4xx_hal_rcc.c ****       A delay between an RCC peripheral clock enable and the effective peripheral
  40:Drivers/STM32F4xx_HAL_Driver/Src/stm32f4xx_hal_rcc.c ****       enabling should be taken into account in order to manage the peripheral read/write
  41:Drivers/STM32F4xx_HAL_Driver/Src/stm32f4xx_hal_rcc.c ****       from/to registers.
  42:Drivers/STM32F4xx_HAL_Driver/Src/stm32f4xx_hal_rcc.c ****       (+) This delay depends on the peripheral mapping.
  43:Drivers/STM32F4xx_HAL_Driver/Src/stm32f4xx_hal_rcc.c ****       (+) If peripheral is mapped on AHB: the delay is 2 AHB clock cycle
  44:Drivers/STM32F4xx_HAL_Driver/Src/stm32f4xx_hal_rcc.c ****           after the clock enable bit is set on the hardware register
  45:Drivers/STM32F4xx_HAL_Driver/Src/stm32f4xx_hal_rcc.c ****       (+) If peripheral is mapped on APB: the delay is 2 APB clock cycle
  46:Drivers/STM32F4xx_HAL_Driver/Src/stm32f4xx_hal_rcc.c ****           after the clock enable bit is set on the hardware register
  47:Drivers/STM32F4xx_HAL_Driver/Src/stm32f4xx_hal_rcc.c **** 
  48:Drivers/STM32F4xx_HAL_Driver/Src/stm32f4xx_hal_rcc.c ****     [..]
  49:Drivers/STM32F4xx_HAL_Driver/Src/stm32f4xx_hal_rcc.c ****       Implemented Workaround:
  50:Drivers/STM32F4xx_HAL_Driver/Src/stm32f4xx_hal_rcc.c ****       (+) For AHB & APB peripherals, a dummy read to the peripheral register has been
  51:Drivers/STM32F4xx_HAL_Driver/Src/stm32f4xx_hal_rcc.c ****           inserted in each __HAL_RCC_PPP_CLK_ENABLE() macro.
  52:Drivers/STM32F4xx_HAL_Driver/Src/stm32f4xx_hal_rcc.c **** 
  53:Drivers/STM32F4xx_HAL_Driver/Src/stm32f4xx_hal_rcc.c ****   @endverbatim
  54:Drivers/STM32F4xx_HAL_Driver/Src/stm32f4xx_hal_rcc.c ****   ******************************************************************************
  55:Drivers/STM32F4xx_HAL_Driver/Src/stm32f4xx_hal_rcc.c ****   * @attention
  56:Drivers/STM32F4xx_HAL_Driver/Src/stm32f4xx_hal_rcc.c ****   *
  57:Drivers/STM32F4xx_HAL_Driver/Src/stm32f4xx_hal_rcc.c ****   * Copyright (c) 2017 STMicroelectronics.
  58:Drivers/STM32F4xx_HAL_Driver/Src/stm32f4xx_hal_rcc.c ****   * All rights reserved.
  59:Drivers/STM32F4xx_HAL_Driver/Src/stm32f4xx_hal_rcc.c ****   *
  60:Drivers/STM32F4xx_HAL_Driver/Src/stm32f4xx_hal_rcc.c ****   * This software is licensed under terms that can be found in the LICENSE file in
  61:Drivers/STM32F4xx_HAL_Driver/Src/stm32f4xx_hal_rcc.c ****   * the root directory of this software component.
  62:Drivers/STM32F4xx_HAL_Driver/Src/stm32f4xx_hal_rcc.c ****   * If no LICENSE file comes with this software, it is provided AS-IS.
  63:Drivers/STM32F4xx_HAL_Driver/Src/stm32f4xx_hal_rcc.c ****   ******************************************************************************
  64:Drivers/STM32F4xx_HAL_Driver/Src/stm32f4xx_hal_rcc.c ****   */
  65:Drivers/STM32F4xx_HAL_Driver/Src/stm32f4xx_hal_rcc.c **** 
  66:Drivers/STM32F4xx_HAL_Driver/Src/stm32f4xx_hal_rcc.c **** /* Includes ------------------------------------------------------------------*/
  67:Drivers/STM32F4xx_HAL_Driver/Src/stm32f4xx_hal_rcc.c **** #include "stm32f4xx_hal.h"
  68:Drivers/STM32F4xx_HAL_Driver/Src/stm32f4xx_hal_rcc.c **** 
  69:Drivers/STM32F4xx_HAL_Driver/Src/stm32f4xx_hal_rcc.c **** /** @addtogroup STM32F4xx_HAL_Driver
  70:Drivers/STM32F4xx_HAL_Driver/Src/stm32f4xx_hal_rcc.c ****   * @{
  71:Drivers/STM32F4xx_HAL_Driver/Src/stm32f4xx_hal_rcc.c ****   */
  72:Drivers/STM32F4xx_HAL_Driver/Src/stm32f4xx_hal_rcc.c **** 
  73:Drivers/STM32F4xx_HAL_Driver/Src/stm32f4xx_hal_rcc.c **** /** @defgroup RCC RCC
  74:Drivers/STM32F4xx_HAL_Driver/Src/stm32f4xx_hal_rcc.c ****   * @brief RCC HAL module driver
  75:Drivers/STM32F4xx_HAL_Driver/Src/stm32f4xx_hal_rcc.c ****   * @{
  76:Drivers/STM32F4xx_HAL_Driver/Src/stm32f4xx_hal_rcc.c ****   */
  77:Drivers/STM32F4xx_HAL_Driver/Src/stm32f4xx_hal_rcc.c **** 
  78:Drivers/STM32F4xx_HAL_Driver/Src/stm32f4xx_hal_rcc.c **** #ifdef HAL_RCC_MODULE_ENABLED
  79:Drivers/STM32F4xx_HAL_Driver/Src/stm32f4xx_hal_rcc.c **** 
  80:Drivers/STM32F4xx_HAL_Driver/Src/stm32f4xx_hal_rcc.c **** /* Private typedef -----------------------------------------------------------*/
  81:Drivers/STM32F4xx_HAL_Driver/Src/stm32f4xx_hal_rcc.c **** /* Private define ------------------------------------------------------------*/
  82:Drivers/STM32F4xx_HAL_Driver/Src/stm32f4xx_hal_rcc.c **** /** @addtogroup RCC_Private_Constants
  83:Drivers/STM32F4xx_HAL_Driver/Src/stm32f4xx_hal_rcc.c ****   * @{
  84:Drivers/STM32F4xx_HAL_Driver/Src/stm32f4xx_hal_rcc.c ****   */
  85:Drivers/STM32F4xx_HAL_Driver/Src/stm32f4xx_hal_rcc.c **** 
  86:Drivers/STM32F4xx_HAL_Driver/Src/stm32f4xx_hal_rcc.c **** /* Private macro -------------------------------------------------------------*/
  87:Drivers/STM32F4xx_HAL_Driver/Src/stm32f4xx_hal_rcc.c **** #define __MCO1_CLK_ENABLE()   __HAL_RCC_GPIOA_CLK_ENABLE()
ARM GAS  /tmp/cc4ImuJe.s 			page 3


  88:Drivers/STM32F4xx_HAL_Driver/Src/stm32f4xx_hal_rcc.c **** #define MCO1_GPIO_PORT        GPIOA
  89:Drivers/STM32F4xx_HAL_Driver/Src/stm32f4xx_hal_rcc.c **** #define MCO1_PIN              GPIO_PIN_8
  90:Drivers/STM32F4xx_HAL_Driver/Src/stm32f4xx_hal_rcc.c **** 
  91:Drivers/STM32F4xx_HAL_Driver/Src/stm32f4xx_hal_rcc.c **** #define __MCO2_CLK_ENABLE()   __HAL_RCC_GPIOC_CLK_ENABLE()
  92:Drivers/STM32F4xx_HAL_Driver/Src/stm32f4xx_hal_rcc.c **** #define MCO2_GPIO_PORT         GPIOC
  93:Drivers/STM32F4xx_HAL_Driver/Src/stm32f4xx_hal_rcc.c **** #define MCO2_PIN               GPIO_PIN_9
  94:Drivers/STM32F4xx_HAL_Driver/Src/stm32f4xx_hal_rcc.c **** /**
  95:Drivers/STM32F4xx_HAL_Driver/Src/stm32f4xx_hal_rcc.c ****   * @}
  96:Drivers/STM32F4xx_HAL_Driver/Src/stm32f4xx_hal_rcc.c ****   */
  97:Drivers/STM32F4xx_HAL_Driver/Src/stm32f4xx_hal_rcc.c **** 
  98:Drivers/STM32F4xx_HAL_Driver/Src/stm32f4xx_hal_rcc.c **** /* Private variables ---------------------------------------------------------*/
  99:Drivers/STM32F4xx_HAL_Driver/Src/stm32f4xx_hal_rcc.c **** /** @defgroup RCC_Private_Variables RCC Private Variables
 100:Drivers/STM32F4xx_HAL_Driver/Src/stm32f4xx_hal_rcc.c ****   * @{
 101:Drivers/STM32F4xx_HAL_Driver/Src/stm32f4xx_hal_rcc.c ****   */
 102:Drivers/STM32F4xx_HAL_Driver/Src/stm32f4xx_hal_rcc.c **** /**
 103:Drivers/STM32F4xx_HAL_Driver/Src/stm32f4xx_hal_rcc.c ****   * @}
 104:Drivers/STM32F4xx_HAL_Driver/Src/stm32f4xx_hal_rcc.c ****   */
 105:Drivers/STM32F4xx_HAL_Driver/Src/stm32f4xx_hal_rcc.c **** /* Private function prototypes -----------------------------------------------*/
 106:Drivers/STM32F4xx_HAL_Driver/Src/stm32f4xx_hal_rcc.c **** /* Private functions ---------------------------------------------------------*/
 107:Drivers/STM32F4xx_HAL_Driver/Src/stm32f4xx_hal_rcc.c **** 
 108:Drivers/STM32F4xx_HAL_Driver/Src/stm32f4xx_hal_rcc.c **** /** @defgroup RCC_Exported_Functions RCC Exported Functions
 109:Drivers/STM32F4xx_HAL_Driver/Src/stm32f4xx_hal_rcc.c ****   *  @{
 110:Drivers/STM32F4xx_HAL_Driver/Src/stm32f4xx_hal_rcc.c ****   */
 111:Drivers/STM32F4xx_HAL_Driver/Src/stm32f4xx_hal_rcc.c **** 
 112:Drivers/STM32F4xx_HAL_Driver/Src/stm32f4xx_hal_rcc.c **** /** @defgroup RCC_Exported_Functions_Group1 Initialization and de-initialization functions
 113:Drivers/STM32F4xx_HAL_Driver/Src/stm32f4xx_hal_rcc.c ****  *  @brief    Initialization and Configuration functions
 114:Drivers/STM32F4xx_HAL_Driver/Src/stm32f4xx_hal_rcc.c ****  *
 115:Drivers/STM32F4xx_HAL_Driver/Src/stm32f4xx_hal_rcc.c **** @verbatim
 116:Drivers/STM32F4xx_HAL_Driver/Src/stm32f4xx_hal_rcc.c ****  ===============================================================================
 117:Drivers/STM32F4xx_HAL_Driver/Src/stm32f4xx_hal_rcc.c ****            ##### Initialization and de-initialization functions #####
 118:Drivers/STM32F4xx_HAL_Driver/Src/stm32f4xx_hal_rcc.c ****  ===============================================================================
 119:Drivers/STM32F4xx_HAL_Driver/Src/stm32f4xx_hal_rcc.c ****     [..]
 120:Drivers/STM32F4xx_HAL_Driver/Src/stm32f4xx_hal_rcc.c ****       This section provides functions allowing to configure the internal/external oscillators
 121:Drivers/STM32F4xx_HAL_Driver/Src/stm32f4xx_hal_rcc.c ****       (HSE, HSI, LSE, LSI, PLL, CSS and MCO) and the System busses clocks (SYSCLK, AHB, APB1
 122:Drivers/STM32F4xx_HAL_Driver/Src/stm32f4xx_hal_rcc.c ****        and APB2).
 123:Drivers/STM32F4xx_HAL_Driver/Src/stm32f4xx_hal_rcc.c **** 
 124:Drivers/STM32F4xx_HAL_Driver/Src/stm32f4xx_hal_rcc.c ****     [..] Internal/external clock and PLL configuration
 125:Drivers/STM32F4xx_HAL_Driver/Src/stm32f4xx_hal_rcc.c ****          (#) HSI (high-speed internal), 16 MHz factory-trimmed RC used directly or through
 126:Drivers/STM32F4xx_HAL_Driver/Src/stm32f4xx_hal_rcc.c ****              the PLL as System clock source.
 127:Drivers/STM32F4xx_HAL_Driver/Src/stm32f4xx_hal_rcc.c **** 
 128:Drivers/STM32F4xx_HAL_Driver/Src/stm32f4xx_hal_rcc.c ****          (#) LSI (low-speed internal), 32 KHz low consumption RC used as IWDG and/or RTC
 129:Drivers/STM32F4xx_HAL_Driver/Src/stm32f4xx_hal_rcc.c ****              clock source.
 130:Drivers/STM32F4xx_HAL_Driver/Src/stm32f4xx_hal_rcc.c **** 
 131:Drivers/STM32F4xx_HAL_Driver/Src/stm32f4xx_hal_rcc.c ****          (#) HSE (high-speed external), 4 to 26 MHz crystal oscillator used directly or
 132:Drivers/STM32F4xx_HAL_Driver/Src/stm32f4xx_hal_rcc.c ****              through the PLL as System clock source. Can be used also as RTC clock source.
 133:Drivers/STM32F4xx_HAL_Driver/Src/stm32f4xx_hal_rcc.c **** 
 134:Drivers/STM32F4xx_HAL_Driver/Src/stm32f4xx_hal_rcc.c ****          (#) LSE (low-speed external), 32 KHz oscillator used as RTC clock source.
 135:Drivers/STM32F4xx_HAL_Driver/Src/stm32f4xx_hal_rcc.c **** 
 136:Drivers/STM32F4xx_HAL_Driver/Src/stm32f4xx_hal_rcc.c ****          (#) PLL (clocked by HSI or HSE), featuring two different output clocks:
 137:Drivers/STM32F4xx_HAL_Driver/Src/stm32f4xx_hal_rcc.c ****            (++) The first output is used to generate the high speed system clock (up to 168 MHz)
 138:Drivers/STM32F4xx_HAL_Driver/Src/stm32f4xx_hal_rcc.c ****            (++) The second output is used to generate the clock for the USB OTG FS (48 MHz),
 139:Drivers/STM32F4xx_HAL_Driver/Src/stm32f4xx_hal_rcc.c ****                 the random analog generator (<=48 MHz) and the SDIO (<= 48 MHz).
 140:Drivers/STM32F4xx_HAL_Driver/Src/stm32f4xx_hal_rcc.c **** 
 141:Drivers/STM32F4xx_HAL_Driver/Src/stm32f4xx_hal_rcc.c ****          (#) CSS (Clock security system), once enable using the macro __HAL_RCC_CSS_ENABLE()
 142:Drivers/STM32F4xx_HAL_Driver/Src/stm32f4xx_hal_rcc.c ****              and if a HSE clock failure occurs(HSE used directly or through PLL as System
 143:Drivers/STM32F4xx_HAL_Driver/Src/stm32f4xx_hal_rcc.c ****              clock source), the System clocks automatically switched to HSI and an interrupt
 144:Drivers/STM32F4xx_HAL_Driver/Src/stm32f4xx_hal_rcc.c ****              is generated if enabled. The interrupt is linked to the Cortex-M4 NMI
ARM GAS  /tmp/cc4ImuJe.s 			page 4


 145:Drivers/STM32F4xx_HAL_Driver/Src/stm32f4xx_hal_rcc.c ****              (Non-Maskable Interrupt) exception vector.
 146:Drivers/STM32F4xx_HAL_Driver/Src/stm32f4xx_hal_rcc.c **** 
 147:Drivers/STM32F4xx_HAL_Driver/Src/stm32f4xx_hal_rcc.c ****          (#) MCO1 (microcontroller clock output), used to output HSI, LSE, HSE or PLL
 148:Drivers/STM32F4xx_HAL_Driver/Src/stm32f4xx_hal_rcc.c ****              clock (through a configurable prescaler) on PA8 pin.
 149:Drivers/STM32F4xx_HAL_Driver/Src/stm32f4xx_hal_rcc.c **** 
 150:Drivers/STM32F4xx_HAL_Driver/Src/stm32f4xx_hal_rcc.c ****          (#) MCO2 (microcontroller clock output), used to output HSE, PLL, SYSCLK or PLLI2S
 151:Drivers/STM32F4xx_HAL_Driver/Src/stm32f4xx_hal_rcc.c ****              clock (through a configurable prescaler) on PC9 pin.
 152:Drivers/STM32F4xx_HAL_Driver/Src/stm32f4xx_hal_rcc.c **** 
 153:Drivers/STM32F4xx_HAL_Driver/Src/stm32f4xx_hal_rcc.c ****     [..] System, AHB and APB busses clocks configuration
 154:Drivers/STM32F4xx_HAL_Driver/Src/stm32f4xx_hal_rcc.c ****          (#) Several clock sources can be used to drive the System clock (SYSCLK): HSI,
 155:Drivers/STM32F4xx_HAL_Driver/Src/stm32f4xx_hal_rcc.c ****              HSE and PLL.
 156:Drivers/STM32F4xx_HAL_Driver/Src/stm32f4xx_hal_rcc.c ****              The AHB clock (HCLK) is derived from System clock through configurable
 157:Drivers/STM32F4xx_HAL_Driver/Src/stm32f4xx_hal_rcc.c ****              prescaler and used to clock the CPU, memory and peripherals mapped
 158:Drivers/STM32F4xx_HAL_Driver/Src/stm32f4xx_hal_rcc.c ****              on AHB bus (DMA, GPIO...). APB1 (PCLK1) and APB2 (PCLK2) clocks are derived
 159:Drivers/STM32F4xx_HAL_Driver/Src/stm32f4xx_hal_rcc.c ****              from AHB clock through configurable prescalers and used to clock
 160:Drivers/STM32F4xx_HAL_Driver/Src/stm32f4xx_hal_rcc.c ****              the peripherals mapped on these busses. You can use
 161:Drivers/STM32F4xx_HAL_Driver/Src/stm32f4xx_hal_rcc.c ****              "HAL_RCC_GetSysClockFreq()" function to retrieve the frequencies of these clocks.
 162:Drivers/STM32F4xx_HAL_Driver/Src/stm32f4xx_hal_rcc.c **** 
 163:Drivers/STM32F4xx_HAL_Driver/Src/stm32f4xx_hal_rcc.c ****          (#) For the STM32F405xx/07xx and STM32F415xx/17xx devices, the maximum
 164:Drivers/STM32F4xx_HAL_Driver/Src/stm32f4xx_hal_rcc.c ****              frequency of the SYSCLK and HCLK is 168 MHz, PCLK2 84 MHz and PCLK1 42 MHz.
 165:Drivers/STM32F4xx_HAL_Driver/Src/stm32f4xx_hal_rcc.c ****              Depending on the device voltage range, the maximum frequency should
 166:Drivers/STM32F4xx_HAL_Driver/Src/stm32f4xx_hal_rcc.c ****              be adapted accordingly (refer to the product datasheets for more details).
 167:Drivers/STM32F4xx_HAL_Driver/Src/stm32f4xx_hal_rcc.c **** 
 168:Drivers/STM32F4xx_HAL_Driver/Src/stm32f4xx_hal_rcc.c ****          (#) For the STM32F42xxx, STM32F43xxx, STM32F446xx, STM32F469xx and STM32F479xx devices,
 169:Drivers/STM32F4xx_HAL_Driver/Src/stm32f4xx_hal_rcc.c ****              the maximum frequency of the SYSCLK and HCLK is 180 MHz, PCLK2 90 MHz and PCLK1 45 MHz
 170:Drivers/STM32F4xx_HAL_Driver/Src/stm32f4xx_hal_rcc.c ****              Depending on the device voltage range, the maximum frequency should
 171:Drivers/STM32F4xx_HAL_Driver/Src/stm32f4xx_hal_rcc.c ****              be adapted accordingly (refer to the product datasheets for more details).
 172:Drivers/STM32F4xx_HAL_Driver/Src/stm32f4xx_hal_rcc.c **** 
 173:Drivers/STM32F4xx_HAL_Driver/Src/stm32f4xx_hal_rcc.c ****          (#) For the STM32F401xx, the maximum frequency of the SYSCLK and HCLK is 84 MHz,
 174:Drivers/STM32F4xx_HAL_Driver/Src/stm32f4xx_hal_rcc.c ****              PCLK2 84 MHz and PCLK1 42 MHz.
 175:Drivers/STM32F4xx_HAL_Driver/Src/stm32f4xx_hal_rcc.c ****              Depending on the device voltage range, the maximum frequency should
 176:Drivers/STM32F4xx_HAL_Driver/Src/stm32f4xx_hal_rcc.c ****              be adapted accordingly (refer to the product datasheets for more details).
 177:Drivers/STM32F4xx_HAL_Driver/Src/stm32f4xx_hal_rcc.c **** 
 178:Drivers/STM32F4xx_HAL_Driver/Src/stm32f4xx_hal_rcc.c ****          (#) For the STM32F41xxx, the maximum frequency of the SYSCLK and HCLK is 100 MHz,
 179:Drivers/STM32F4xx_HAL_Driver/Src/stm32f4xx_hal_rcc.c ****              PCLK2 100 MHz and PCLK1 50 MHz.
 180:Drivers/STM32F4xx_HAL_Driver/Src/stm32f4xx_hal_rcc.c ****              Depending on the device voltage range, the maximum frequency should
 181:Drivers/STM32F4xx_HAL_Driver/Src/stm32f4xx_hal_rcc.c ****              be adapted accordingly (refer to the product datasheets for more details).
 182:Drivers/STM32F4xx_HAL_Driver/Src/stm32f4xx_hal_rcc.c **** 
 183:Drivers/STM32F4xx_HAL_Driver/Src/stm32f4xx_hal_rcc.c **** @endverbatim
 184:Drivers/STM32F4xx_HAL_Driver/Src/stm32f4xx_hal_rcc.c ****   * @{
 185:Drivers/STM32F4xx_HAL_Driver/Src/stm32f4xx_hal_rcc.c ****   */
 186:Drivers/STM32F4xx_HAL_Driver/Src/stm32f4xx_hal_rcc.c **** 
 187:Drivers/STM32F4xx_HAL_Driver/Src/stm32f4xx_hal_rcc.c **** /**
 188:Drivers/STM32F4xx_HAL_Driver/Src/stm32f4xx_hal_rcc.c ****   * @brief  Resets the RCC clock configuration to the default reset state.
 189:Drivers/STM32F4xx_HAL_Driver/Src/stm32f4xx_hal_rcc.c ****   * @note   The default reset state of the clock configuration is given below:
 190:Drivers/STM32F4xx_HAL_Driver/Src/stm32f4xx_hal_rcc.c ****   *            - HSI ON and used as system clock source
 191:Drivers/STM32F4xx_HAL_Driver/Src/stm32f4xx_hal_rcc.c ****   *            - HSE and PLL OFF
 192:Drivers/STM32F4xx_HAL_Driver/Src/stm32f4xx_hal_rcc.c ****   *            - AHB, APB1 and APB2 prescaler set to 1.
 193:Drivers/STM32F4xx_HAL_Driver/Src/stm32f4xx_hal_rcc.c ****   *            - CSS, MCO1 and MCO2 OFF
 194:Drivers/STM32F4xx_HAL_Driver/Src/stm32f4xx_hal_rcc.c ****   *            - All interrupts disabled
 195:Drivers/STM32F4xx_HAL_Driver/Src/stm32f4xx_hal_rcc.c ****   * @note   This function doesn't modify the configuration of the
 196:Drivers/STM32F4xx_HAL_Driver/Src/stm32f4xx_hal_rcc.c ****   *            - Peripheral clocks
 197:Drivers/STM32F4xx_HAL_Driver/Src/stm32f4xx_hal_rcc.c ****   *            - LSI, LSE and RTC clocks
 198:Drivers/STM32F4xx_HAL_Driver/Src/stm32f4xx_hal_rcc.c ****   * @retval HAL status
 199:Drivers/STM32F4xx_HAL_Driver/Src/stm32f4xx_hal_rcc.c ****   */
 200:Drivers/STM32F4xx_HAL_Driver/Src/stm32f4xx_hal_rcc.c **** __weak HAL_StatusTypeDef HAL_RCC_DeInit(void)
 201:Drivers/STM32F4xx_HAL_Driver/Src/stm32f4xx_hal_rcc.c **** {
ARM GAS  /tmp/cc4ImuJe.s 			page 5


  29              		.loc 1 201 1 view -0
  30              		.cfi_startproc
  31              		@ args = 0, pretend = 0, frame = 0
  32              		@ frame_needed = 0, uses_anonymous_args = 0
  33              		@ link register save eliminated.
 202:Drivers/STM32F4xx_HAL_Driver/Src/stm32f4xx_hal_rcc.c ****   return HAL_OK;
  34              		.loc 1 202 3 view .LVU1
 203:Drivers/STM32F4xx_HAL_Driver/Src/stm32f4xx_hal_rcc.c **** }
  35              		.loc 1 203 1 is_stmt 0 view .LVU2
  36 0000 0020     		movs	r0, #0
  37 0002 7047     		bx	lr
  38              		.cfi_endproc
  39              	.LFE130:
  41              		.section	.text.HAL_RCC_OscConfig,"ax",%progbits
  42              		.align	1
  43              		.weak	HAL_RCC_OscConfig
  44              		.syntax unified
  45              		.thumb
  46              		.thumb_func
  48              	HAL_RCC_OscConfig:
  49              	.LVL0:
  50              	.LFB131:
 204:Drivers/STM32F4xx_HAL_Driver/Src/stm32f4xx_hal_rcc.c **** 
 205:Drivers/STM32F4xx_HAL_Driver/Src/stm32f4xx_hal_rcc.c **** /**
 206:Drivers/STM32F4xx_HAL_Driver/Src/stm32f4xx_hal_rcc.c ****   * @brief  Initializes the RCC Oscillators according to the specified parameters in the
 207:Drivers/STM32F4xx_HAL_Driver/Src/stm32f4xx_hal_rcc.c ****   *         RCC_OscInitTypeDef.
 208:Drivers/STM32F4xx_HAL_Driver/Src/stm32f4xx_hal_rcc.c ****   * @param  RCC_OscInitStruct pointer to an RCC_OscInitTypeDef structure that
 209:Drivers/STM32F4xx_HAL_Driver/Src/stm32f4xx_hal_rcc.c ****   *         contains the configuration information for the RCC Oscillators.
 210:Drivers/STM32F4xx_HAL_Driver/Src/stm32f4xx_hal_rcc.c ****   * @note   The PLL is not disabled when used as system clock.
 211:Drivers/STM32F4xx_HAL_Driver/Src/stm32f4xx_hal_rcc.c ****   * @note   Transitions LSE Bypass to LSE On and LSE On to LSE Bypass are not
 212:Drivers/STM32F4xx_HAL_Driver/Src/stm32f4xx_hal_rcc.c ****   *         supported by this API. User should request a transition to LSE Off
 213:Drivers/STM32F4xx_HAL_Driver/Src/stm32f4xx_hal_rcc.c ****   *         first and then LSE On or LSE Bypass.
 214:Drivers/STM32F4xx_HAL_Driver/Src/stm32f4xx_hal_rcc.c ****   * @note   Transition HSE Bypass to HSE On and HSE On to HSE Bypass are not
 215:Drivers/STM32F4xx_HAL_Driver/Src/stm32f4xx_hal_rcc.c ****   *         supported by this API. User should request a transition to HSE Off
 216:Drivers/STM32F4xx_HAL_Driver/Src/stm32f4xx_hal_rcc.c ****   *         first and then HSE On or HSE Bypass.
 217:Drivers/STM32F4xx_HAL_Driver/Src/stm32f4xx_hal_rcc.c ****   * @retval HAL status
 218:Drivers/STM32F4xx_HAL_Driver/Src/stm32f4xx_hal_rcc.c ****   */
 219:Drivers/STM32F4xx_HAL_Driver/Src/stm32f4xx_hal_rcc.c **** __weak HAL_StatusTypeDef HAL_RCC_OscConfig(RCC_OscInitTypeDef  *RCC_OscInitStruct)
 220:Drivers/STM32F4xx_HAL_Driver/Src/stm32f4xx_hal_rcc.c **** {
  51              		.loc 1 220 1 is_stmt 1 view -0
  52              		.cfi_startproc
  53              		@ args = 0, pretend = 0, frame = 8
  54              		@ frame_needed = 0, uses_anonymous_args = 0
 221:Drivers/STM32F4xx_HAL_Driver/Src/stm32f4xx_hal_rcc.c ****   uint32_t tickstart, pll_config;
  55              		.loc 1 221 3 view .LVU4
 222:Drivers/STM32F4xx_HAL_Driver/Src/stm32f4xx_hal_rcc.c **** 
 223:Drivers/STM32F4xx_HAL_Driver/Src/stm32f4xx_hal_rcc.c ****   /* Check Null pointer */
 224:Drivers/STM32F4xx_HAL_Driver/Src/stm32f4xx_hal_rcc.c ****   if(RCC_OscInitStruct == NULL)
  56              		.loc 1 224 3 view .LVU5
  57              		.loc 1 224 5 is_stmt 0 view .LVU6
  58 0000 0028     		cmp	r0, #0
  59 0002 00F0E681 		beq	.L52
 220:Drivers/STM32F4xx_HAL_Driver/Src/stm32f4xx_hal_rcc.c ****   uint32_t tickstart, pll_config;
  60              		.loc 1 220 1 view .LVU7
  61 0006 70B5     		push	{r4, r5, r6, lr}
  62              		.cfi_def_cfa_offset 16
  63              		.cfi_offset 4, -16
ARM GAS  /tmp/cc4ImuJe.s 			page 6


  64              		.cfi_offset 5, -12
  65              		.cfi_offset 6, -8
  66              		.cfi_offset 14, -4
  67 0008 82B0     		sub	sp, sp, #8
  68              		.cfi_def_cfa_offset 24
  69 000a 0446     		mov	r4, r0
 225:Drivers/STM32F4xx_HAL_Driver/Src/stm32f4xx_hal_rcc.c ****   {
 226:Drivers/STM32F4xx_HAL_Driver/Src/stm32f4xx_hal_rcc.c ****     return HAL_ERROR;
 227:Drivers/STM32F4xx_HAL_Driver/Src/stm32f4xx_hal_rcc.c ****   }
 228:Drivers/STM32F4xx_HAL_Driver/Src/stm32f4xx_hal_rcc.c **** 
 229:Drivers/STM32F4xx_HAL_Driver/Src/stm32f4xx_hal_rcc.c ****   /* Check the parameters */
 230:Drivers/STM32F4xx_HAL_Driver/Src/stm32f4xx_hal_rcc.c ****   assert_param(IS_RCC_OSCILLATORTYPE(RCC_OscInitStruct->OscillatorType));
  70              		.loc 1 230 3 is_stmt 1 view .LVU8
 231:Drivers/STM32F4xx_HAL_Driver/Src/stm32f4xx_hal_rcc.c ****   /*------------------------------- HSE Configuration ------------------------*/
 232:Drivers/STM32F4xx_HAL_Driver/Src/stm32f4xx_hal_rcc.c ****   if(((RCC_OscInitStruct->OscillatorType) & RCC_OSCILLATORTYPE_HSE) == RCC_OSCILLATORTYPE_HSE)
  71              		.loc 1 232 3 view .LVU9
  72              		.loc 1 232 25 is_stmt 0 view .LVU10
  73 000c 0368     		ldr	r3, [r0]
  74              		.loc 1 232 5 view .LVU11
  75 000e 13F0010F 		tst	r3, #1
  76 0012 3BD0     		beq	.L4
 233:Drivers/STM32F4xx_HAL_Driver/Src/stm32f4xx_hal_rcc.c ****   {
 234:Drivers/STM32F4xx_HAL_Driver/Src/stm32f4xx_hal_rcc.c ****     /* Check the parameters */
 235:Drivers/STM32F4xx_HAL_Driver/Src/stm32f4xx_hal_rcc.c ****     assert_param(IS_RCC_HSE(RCC_OscInitStruct->HSEState));
  77              		.loc 1 235 5 is_stmt 1 view .LVU12
 236:Drivers/STM32F4xx_HAL_Driver/Src/stm32f4xx_hal_rcc.c ****     /* When the HSE is used as system clock or clock source for PLL in these cases HSE will not dis
 237:Drivers/STM32F4xx_HAL_Driver/Src/stm32f4xx_hal_rcc.c ****     if((__HAL_RCC_GET_SYSCLK_SOURCE() == RCC_CFGR_SWS_HSE) ||\
  78              		.loc 1 237 5 view .LVU13
  79              		.loc 1 237 9 is_stmt 0 view .LVU14
  80 0014 9F4B     		ldr	r3, .L94
  81 0016 9B68     		ldr	r3, [r3, #8]
  82 0018 03F00C03 		and	r3, r3, #12
  83              		.loc 1 237 7 view .LVU15
  84 001c 042B     		cmp	r3, #4
  85 001e 2CD0     		beq	.L5
 238:Drivers/STM32F4xx_HAL_Driver/Src/stm32f4xx_hal_rcc.c ****       ((__HAL_RCC_GET_SYSCLK_SOURCE() == RCC_CFGR_SWS_PLL) && ((RCC->PLLCFGR & RCC_PLLCFGR_PLLSRC) 
  86              		.loc 1 238 9 view .LVU16
  87 0020 9C4B     		ldr	r3, .L94
  88 0022 9B68     		ldr	r3, [r3, #8]
  89 0024 03F00C03 		and	r3, r3, #12
 237:Drivers/STM32F4xx_HAL_Driver/Src/stm32f4xx_hal_rcc.c ****       ((__HAL_RCC_GET_SYSCLK_SOURCE() == RCC_CFGR_SWS_PLL) && ((RCC->PLLCFGR & RCC_PLLCFGR_PLLSRC) 
  90              		.loc 1 237 60 discriminator 1 view .LVU17
  91 0028 082B     		cmp	r3, #8
  92 002a 21D0     		beq	.L80
  93              	.L6:
 239:Drivers/STM32F4xx_HAL_Driver/Src/stm32f4xx_hal_rcc.c ****     {
 240:Drivers/STM32F4xx_HAL_Driver/Src/stm32f4xx_hal_rcc.c ****       if((__HAL_RCC_GET_FLAG(RCC_FLAG_HSERDY) != RESET) && (RCC_OscInitStruct->HSEState == RCC_HSE_
 241:Drivers/STM32F4xx_HAL_Driver/Src/stm32f4xx_hal_rcc.c ****       {
 242:Drivers/STM32F4xx_HAL_Driver/Src/stm32f4xx_hal_rcc.c ****         return HAL_ERROR;
 243:Drivers/STM32F4xx_HAL_Driver/Src/stm32f4xx_hal_rcc.c ****       }
 244:Drivers/STM32F4xx_HAL_Driver/Src/stm32f4xx_hal_rcc.c ****     }
 245:Drivers/STM32F4xx_HAL_Driver/Src/stm32f4xx_hal_rcc.c ****     else
 246:Drivers/STM32F4xx_HAL_Driver/Src/stm32f4xx_hal_rcc.c ****     {
 247:Drivers/STM32F4xx_HAL_Driver/Src/stm32f4xx_hal_rcc.c ****       /* Set the new HSE configuration ---------------------------------------*/
 248:Drivers/STM32F4xx_HAL_Driver/Src/stm32f4xx_hal_rcc.c ****       __HAL_RCC_HSE_CONFIG(RCC_OscInitStruct->HSEState);
  94              		.loc 1 248 7 is_stmt 1 view .LVU18
  95              		.loc 1 248 7 view .LVU19
ARM GAS  /tmp/cc4ImuJe.s 			page 7


  96 002c 6368     		ldr	r3, [r4, #4]
  97 002e B3F5803F 		cmp	r3, #65536
  98 0032 4FD0     		beq	.L81
  99              		.loc 1 248 7 discriminator 2 view .LVU20
 100 0034 B3F5A02F 		cmp	r3, #327680
 101 0038 52D0     		beq	.L82
 102              		.loc 1 248 7 discriminator 5 view .LVU21
 103 003a 964B     		ldr	r3, .L94
 104 003c 1A68     		ldr	r2, [r3]
 105 003e 22F48032 		bic	r2, r2, #65536
 106 0042 1A60     		str	r2, [r3]
 107              		.loc 1 248 7 view .LVU22
 108              		.loc 1 248 7 is_stmt 0 discriminator 5 view .LVU23
 109 0044 1A68     		ldr	r2, [r3]
 110 0046 22F48022 		bic	r2, r2, #262144
 111 004a 1A60     		str	r2, [r3]
 112              	.L8:
 113              		.loc 1 248 7 is_stmt 1 discriminator 7 view .LVU24
 249:Drivers/STM32F4xx_HAL_Driver/Src/stm32f4xx_hal_rcc.c **** 
 250:Drivers/STM32F4xx_HAL_Driver/Src/stm32f4xx_hal_rcc.c ****       /* Check the HSE State */
 251:Drivers/STM32F4xx_HAL_Driver/Src/stm32f4xx_hal_rcc.c ****       if((RCC_OscInitStruct->HSEState) != RCC_HSE_OFF)
 114              		.loc 1 251 7 view .LVU25
 115              		.loc 1 251 28 is_stmt 0 view .LVU26
 116 004c 6368     		ldr	r3, [r4, #4]
 117              		.loc 1 251 9 view .LVU27
 118 004e 002B     		cmp	r3, #0
 119 0050 50D0     		beq	.L10
 252:Drivers/STM32F4xx_HAL_Driver/Src/stm32f4xx_hal_rcc.c ****       {
 253:Drivers/STM32F4xx_HAL_Driver/Src/stm32f4xx_hal_rcc.c ****         /* Get Start Tick */
 254:Drivers/STM32F4xx_HAL_Driver/Src/stm32f4xx_hal_rcc.c ****         tickstart = HAL_GetTick();
 120              		.loc 1 254 9 is_stmt 1 view .LVU28
 121              		.loc 1 254 21 is_stmt 0 view .LVU29
 122 0052 FFF7FEFF 		bl	HAL_GetTick
 123              	.LVL1:
 124              		.loc 1 254 21 view .LVU30
 125 0056 0546     		mov	r5, r0
 126              	.LVL2:
 255:Drivers/STM32F4xx_HAL_Driver/Src/stm32f4xx_hal_rcc.c **** 
 256:Drivers/STM32F4xx_HAL_Driver/Src/stm32f4xx_hal_rcc.c ****         /* Wait till HSE is ready */
 257:Drivers/STM32F4xx_HAL_Driver/Src/stm32f4xx_hal_rcc.c ****         while(__HAL_RCC_GET_FLAG(RCC_FLAG_HSERDY) == RESET)
 127              		.loc 1 257 9 is_stmt 1 view .LVU31
 128              	.L11:
 129              		.loc 1 257 51 view .LVU32
 130              		.loc 1 257 15 is_stmt 0 view .LVU33
 131 0058 8E4B     		ldr	r3, .L94
 132 005a 1B68     		ldr	r3, [r3]
 133              		.loc 1 257 51 view .LVU34
 134 005c 13F4003F 		tst	r3, #131072
 135 0060 14D1     		bne	.L4
 258:Drivers/STM32F4xx_HAL_Driver/Src/stm32f4xx_hal_rcc.c ****         {
 259:Drivers/STM32F4xx_HAL_Driver/Src/stm32f4xx_hal_rcc.c ****           if((HAL_GetTick() - tickstart ) > HSE_TIMEOUT_VALUE)
 136              		.loc 1 259 11 is_stmt 1 view .LVU35
 137              		.loc 1 259 15 is_stmt 0 view .LVU36
 138 0062 FFF7FEFF 		bl	HAL_GetTick
 139              	.LVL3:
 140              		.loc 1 259 29 discriminator 1 view .LVU37
 141 0066 401B     		subs	r0, r0, r5
ARM GAS  /tmp/cc4ImuJe.s 			page 8


 142              		.loc 1 259 13 discriminator 1 view .LVU38
 143 0068 6428     		cmp	r0, #100
 144 006a F5D9     		bls	.L11
 260:Drivers/STM32F4xx_HAL_Driver/Src/stm32f4xx_hal_rcc.c ****           {
 261:Drivers/STM32F4xx_HAL_Driver/Src/stm32f4xx_hal_rcc.c ****             return HAL_TIMEOUT;
 145              		.loc 1 261 20 view .LVU39
 146 006c 0320     		movs	r0, #3
 147 006e B7E1     		b	.L3
 148              	.LVL4:
 149              	.L80:
 238:Drivers/STM32F4xx_HAL_Driver/Src/stm32f4xx_hal_rcc.c ****     {
 150              		.loc 1 238 68 view .LVU40
 151 0070 884B     		ldr	r3, .L94
 152 0072 5B68     		ldr	r3, [r3, #4]
 238:Drivers/STM32F4xx_HAL_Driver/Src/stm32f4xx_hal_rcc.c ****     {
 153              		.loc 1 238 60 view .LVU41
 154 0074 13F4800F 		tst	r3, #4194304
 155 0078 D8D0     		beq	.L6
 156              	.L5:
 240:Drivers/STM32F4xx_HAL_Driver/Src/stm32f4xx_hal_rcc.c ****       {
 157              		.loc 1 240 7 is_stmt 1 view .LVU42
 240:Drivers/STM32F4xx_HAL_Driver/Src/stm32f4xx_hal_rcc.c ****       {
 158              		.loc 1 240 11 is_stmt 0 view .LVU43
 159 007a 864B     		ldr	r3, .L94
 160 007c 1B68     		ldr	r3, [r3]
 240:Drivers/STM32F4xx_HAL_Driver/Src/stm32f4xx_hal_rcc.c ****       {
 161              		.loc 1 240 9 view .LVU44
 162 007e 13F4003F 		tst	r3, #131072
 163 0082 03D0     		beq	.L4
 240:Drivers/STM32F4xx_HAL_Driver/Src/stm32f4xx_hal_rcc.c ****       {
 164              		.loc 1 240 78 discriminator 1 view .LVU45
 165 0084 6368     		ldr	r3, [r4, #4]
 240:Drivers/STM32F4xx_HAL_Driver/Src/stm32f4xx_hal_rcc.c ****       {
 166              		.loc 1 240 57 discriminator 1 view .LVU46
 167 0086 002B     		cmp	r3, #0
 168 0088 00F0A581 		beq	.L83
 169              	.LVL5:
 170              	.L4:
 262:Drivers/STM32F4xx_HAL_Driver/Src/stm32f4xx_hal_rcc.c ****           }
 263:Drivers/STM32F4xx_HAL_Driver/Src/stm32f4xx_hal_rcc.c ****         }
 264:Drivers/STM32F4xx_HAL_Driver/Src/stm32f4xx_hal_rcc.c ****       }
 265:Drivers/STM32F4xx_HAL_Driver/Src/stm32f4xx_hal_rcc.c ****       else
 266:Drivers/STM32F4xx_HAL_Driver/Src/stm32f4xx_hal_rcc.c ****       {
 267:Drivers/STM32F4xx_HAL_Driver/Src/stm32f4xx_hal_rcc.c ****         /* Get Start Tick */
 268:Drivers/STM32F4xx_HAL_Driver/Src/stm32f4xx_hal_rcc.c ****         tickstart = HAL_GetTick();
 269:Drivers/STM32F4xx_HAL_Driver/Src/stm32f4xx_hal_rcc.c **** 
 270:Drivers/STM32F4xx_HAL_Driver/Src/stm32f4xx_hal_rcc.c ****         /* Wait till HSE is bypassed or disabled */
 271:Drivers/STM32F4xx_HAL_Driver/Src/stm32f4xx_hal_rcc.c ****         while(__HAL_RCC_GET_FLAG(RCC_FLAG_HSERDY) != RESET)
 272:Drivers/STM32F4xx_HAL_Driver/Src/stm32f4xx_hal_rcc.c ****         {
 273:Drivers/STM32F4xx_HAL_Driver/Src/stm32f4xx_hal_rcc.c ****           if((HAL_GetTick() - tickstart ) > HSE_TIMEOUT_VALUE)
 274:Drivers/STM32F4xx_HAL_Driver/Src/stm32f4xx_hal_rcc.c ****           {
 275:Drivers/STM32F4xx_HAL_Driver/Src/stm32f4xx_hal_rcc.c ****             return HAL_TIMEOUT;
 276:Drivers/STM32F4xx_HAL_Driver/Src/stm32f4xx_hal_rcc.c ****           }
 277:Drivers/STM32F4xx_HAL_Driver/Src/stm32f4xx_hal_rcc.c ****         }
 278:Drivers/STM32F4xx_HAL_Driver/Src/stm32f4xx_hal_rcc.c ****       }
 279:Drivers/STM32F4xx_HAL_Driver/Src/stm32f4xx_hal_rcc.c ****     }
 280:Drivers/STM32F4xx_HAL_Driver/Src/stm32f4xx_hal_rcc.c ****   }
ARM GAS  /tmp/cc4ImuJe.s 			page 9


 281:Drivers/STM32F4xx_HAL_Driver/Src/stm32f4xx_hal_rcc.c ****   /*----------------------------- HSI Configuration --------------------------*/
 282:Drivers/STM32F4xx_HAL_Driver/Src/stm32f4xx_hal_rcc.c ****   if(((RCC_OscInitStruct->OscillatorType) & RCC_OSCILLATORTYPE_HSI) == RCC_OSCILLATORTYPE_HSI)
 171              		.loc 1 282 3 is_stmt 1 view .LVU47
 172              		.loc 1 282 25 is_stmt 0 view .LVU48
 173 008c 2368     		ldr	r3, [r4]
 174              		.loc 1 282 5 view .LVU49
 175 008e 13F0020F 		tst	r3, #2
 176 0092 54D0     		beq	.L15
 283:Drivers/STM32F4xx_HAL_Driver/Src/stm32f4xx_hal_rcc.c ****   {
 284:Drivers/STM32F4xx_HAL_Driver/Src/stm32f4xx_hal_rcc.c ****     /* Check the parameters */
 285:Drivers/STM32F4xx_HAL_Driver/Src/stm32f4xx_hal_rcc.c ****     assert_param(IS_RCC_HSI(RCC_OscInitStruct->HSIState));
 177              		.loc 1 285 5 is_stmt 1 view .LVU50
 286:Drivers/STM32F4xx_HAL_Driver/Src/stm32f4xx_hal_rcc.c ****     assert_param(IS_RCC_CALIBRATION_VALUE(RCC_OscInitStruct->HSICalibrationValue));
 178              		.loc 1 286 5 view .LVU51
 287:Drivers/STM32F4xx_HAL_Driver/Src/stm32f4xx_hal_rcc.c **** 
 288:Drivers/STM32F4xx_HAL_Driver/Src/stm32f4xx_hal_rcc.c ****     /* Check if HSI is used as system clock or as PLL source when PLL is selected as system clock *
 289:Drivers/STM32F4xx_HAL_Driver/Src/stm32f4xx_hal_rcc.c ****     if((__HAL_RCC_GET_SYSCLK_SOURCE() == RCC_CFGR_SWS_HSI) ||\
 179              		.loc 1 289 5 view .LVU52
 180              		.loc 1 289 9 is_stmt 0 view .LVU53
 181 0094 7F4B     		ldr	r3, .L94
 182 0096 9B68     		ldr	r3, [r3, #8]
 183              		.loc 1 289 7 view .LVU54
 184 0098 13F00C0F 		tst	r3, #12
 185 009c 3ED0     		beq	.L16
 290:Drivers/STM32F4xx_HAL_Driver/Src/stm32f4xx_hal_rcc.c ****       ((__HAL_RCC_GET_SYSCLK_SOURCE() == RCC_CFGR_SWS_PLL) && ((RCC->PLLCFGR & RCC_PLLCFGR_PLLSRC) 
 186              		.loc 1 290 9 view .LVU55
 187 009e 7D4B     		ldr	r3, .L94
 188 00a0 9B68     		ldr	r3, [r3, #8]
 189 00a2 03F00C03 		and	r3, r3, #12
 289:Drivers/STM32F4xx_HAL_Driver/Src/stm32f4xx_hal_rcc.c ****       ((__HAL_RCC_GET_SYSCLK_SOURCE() == RCC_CFGR_SWS_PLL) && ((RCC->PLLCFGR & RCC_PLLCFGR_PLLSRC) 
 190              		.loc 1 289 60 discriminator 1 view .LVU56
 191 00a6 082B     		cmp	r3, #8
 192 00a8 33D0     		beq	.L84
 193              	.L17:
 291:Drivers/STM32F4xx_HAL_Driver/Src/stm32f4xx_hal_rcc.c ****     {
 292:Drivers/STM32F4xx_HAL_Driver/Src/stm32f4xx_hal_rcc.c ****       /* When HSI is used as system clock it will not disabled */
 293:Drivers/STM32F4xx_HAL_Driver/Src/stm32f4xx_hal_rcc.c ****       if((__HAL_RCC_GET_FLAG(RCC_FLAG_HSIRDY) != RESET) && (RCC_OscInitStruct->HSIState != RCC_HSI_
 294:Drivers/STM32F4xx_HAL_Driver/Src/stm32f4xx_hal_rcc.c ****       {
 295:Drivers/STM32F4xx_HAL_Driver/Src/stm32f4xx_hal_rcc.c ****         return HAL_ERROR;
 296:Drivers/STM32F4xx_HAL_Driver/Src/stm32f4xx_hal_rcc.c ****       }
 297:Drivers/STM32F4xx_HAL_Driver/Src/stm32f4xx_hal_rcc.c ****       /* Otherwise, just the calibration is allowed */
 298:Drivers/STM32F4xx_HAL_Driver/Src/stm32f4xx_hal_rcc.c ****       else
 299:Drivers/STM32F4xx_HAL_Driver/Src/stm32f4xx_hal_rcc.c ****       {
 300:Drivers/STM32F4xx_HAL_Driver/Src/stm32f4xx_hal_rcc.c ****         /* Adjusts the Internal High Speed oscillator (HSI) calibration value.*/
 301:Drivers/STM32F4xx_HAL_Driver/Src/stm32f4xx_hal_rcc.c ****         __HAL_RCC_HSI_CALIBRATIONVALUE_ADJUST(RCC_OscInitStruct->HSICalibrationValue);
 302:Drivers/STM32F4xx_HAL_Driver/Src/stm32f4xx_hal_rcc.c ****       }
 303:Drivers/STM32F4xx_HAL_Driver/Src/stm32f4xx_hal_rcc.c ****     }
 304:Drivers/STM32F4xx_HAL_Driver/Src/stm32f4xx_hal_rcc.c ****     else
 305:Drivers/STM32F4xx_HAL_Driver/Src/stm32f4xx_hal_rcc.c ****     {
 306:Drivers/STM32F4xx_HAL_Driver/Src/stm32f4xx_hal_rcc.c ****       /* Check the HSI State */
 307:Drivers/STM32F4xx_HAL_Driver/Src/stm32f4xx_hal_rcc.c ****       if((RCC_OscInitStruct->HSIState)!= RCC_HSI_OFF)
 194              		.loc 1 307 7 is_stmt 1 view .LVU57
 195              		.loc 1 307 28 is_stmt 0 view .LVU58
 196 00aa E368     		ldr	r3, [r4, #12]
 197              		.loc 1 307 9 view .LVU59
 198 00ac 002B     		cmp	r3, #0
 199 00ae 68D0     		beq	.L19
ARM GAS  /tmp/cc4ImuJe.s 			page 10


 308:Drivers/STM32F4xx_HAL_Driver/Src/stm32f4xx_hal_rcc.c ****       {
 309:Drivers/STM32F4xx_HAL_Driver/Src/stm32f4xx_hal_rcc.c ****         /* Enable the Internal High Speed oscillator (HSI). */
 310:Drivers/STM32F4xx_HAL_Driver/Src/stm32f4xx_hal_rcc.c ****         __HAL_RCC_HSI_ENABLE();
 200              		.loc 1 310 9 is_stmt 1 view .LVU60
 201 00b0 794B     		ldr	r3, .L94+4
 202 00b2 0122     		movs	r2, #1
 203 00b4 1A60     		str	r2, [r3]
 311:Drivers/STM32F4xx_HAL_Driver/Src/stm32f4xx_hal_rcc.c **** 
 312:Drivers/STM32F4xx_HAL_Driver/Src/stm32f4xx_hal_rcc.c ****         /* Get Start Tick*/
 313:Drivers/STM32F4xx_HAL_Driver/Src/stm32f4xx_hal_rcc.c ****         tickstart = HAL_GetTick();
 204              		.loc 1 313 9 view .LVU61
 205              		.loc 1 313 21 is_stmt 0 view .LVU62
 206 00b6 FFF7FEFF 		bl	HAL_GetTick
 207              	.LVL6:
 208 00ba 0546     		mov	r5, r0
 209              	.LVL7:
 314:Drivers/STM32F4xx_HAL_Driver/Src/stm32f4xx_hal_rcc.c **** 
 315:Drivers/STM32F4xx_HAL_Driver/Src/stm32f4xx_hal_rcc.c ****         /* Wait till HSI is ready */
 316:Drivers/STM32F4xx_HAL_Driver/Src/stm32f4xx_hal_rcc.c ****         while(__HAL_RCC_GET_FLAG(RCC_FLAG_HSIRDY) == RESET)
 210              		.loc 1 316 9 is_stmt 1 view .LVU63
 211              	.L20:
 212              		.loc 1 316 51 view .LVU64
 213              		.loc 1 316 15 is_stmt 0 view .LVU65
 214 00bc 754B     		ldr	r3, .L94
 215 00be 1B68     		ldr	r3, [r3]
 216              		.loc 1 316 51 view .LVU66
 217 00c0 13F0020F 		tst	r3, #2
 218 00c4 54D1     		bne	.L85
 317:Drivers/STM32F4xx_HAL_Driver/Src/stm32f4xx_hal_rcc.c ****         {
 318:Drivers/STM32F4xx_HAL_Driver/Src/stm32f4xx_hal_rcc.c ****           if((HAL_GetTick() - tickstart ) > HSI_TIMEOUT_VALUE)
 219              		.loc 1 318 11 is_stmt 1 view .LVU67
 220              		.loc 1 318 15 is_stmt 0 view .LVU68
 221 00c6 FFF7FEFF 		bl	HAL_GetTick
 222              	.LVL8:
 223              		.loc 1 318 29 discriminator 1 view .LVU69
 224 00ca 401B     		subs	r0, r0, r5
 225              		.loc 1 318 13 discriminator 1 view .LVU70
 226 00cc 0228     		cmp	r0, #2
 227 00ce F5D9     		bls	.L20
 319:Drivers/STM32F4xx_HAL_Driver/Src/stm32f4xx_hal_rcc.c ****           {
 320:Drivers/STM32F4xx_HAL_Driver/Src/stm32f4xx_hal_rcc.c ****             return HAL_TIMEOUT;
 228              		.loc 1 320 20 view .LVU71
 229 00d0 0320     		movs	r0, #3
 230 00d2 85E1     		b	.L3
 231              	.LVL9:
 232              	.L81:
 248:Drivers/STM32F4xx_HAL_Driver/Src/stm32f4xx_hal_rcc.c **** 
 233              		.loc 1 248 7 is_stmt 1 discriminator 1 view .LVU72
 234 00d4 6F4A     		ldr	r2, .L94
 235 00d6 1368     		ldr	r3, [r2]
 236 00d8 43F48033 		orr	r3, r3, #65536
 237 00dc 1360     		str	r3, [r2]
 238 00de B5E7     		b	.L8
 239              	.L82:
 248:Drivers/STM32F4xx_HAL_Driver/Src/stm32f4xx_hal_rcc.c **** 
 240              		.loc 1 248 7 discriminator 4 view .LVU73
 241 00e0 6C4B     		ldr	r3, .L94
ARM GAS  /tmp/cc4ImuJe.s 			page 11


 242 00e2 1A68     		ldr	r2, [r3]
 243 00e4 42F48022 		orr	r2, r2, #262144
 244 00e8 1A60     		str	r2, [r3]
 248:Drivers/STM32F4xx_HAL_Driver/Src/stm32f4xx_hal_rcc.c **** 
 245              		.loc 1 248 7 view .LVU74
 248:Drivers/STM32F4xx_HAL_Driver/Src/stm32f4xx_hal_rcc.c **** 
 246              		.loc 1 248 7 is_stmt 0 discriminator 4 view .LVU75
 247 00ea 1A68     		ldr	r2, [r3]
 248 00ec 42F48032 		orr	r2, r2, #65536
 249 00f0 1A60     		str	r2, [r3]
 250 00f2 ABE7     		b	.L8
 251              	.L10:
 268:Drivers/STM32F4xx_HAL_Driver/Src/stm32f4xx_hal_rcc.c **** 
 252              		.loc 1 268 9 is_stmt 1 view .LVU76
 268:Drivers/STM32F4xx_HAL_Driver/Src/stm32f4xx_hal_rcc.c **** 
 253              		.loc 1 268 21 is_stmt 0 view .LVU77
 254 00f4 FFF7FEFF 		bl	HAL_GetTick
 255              	.LVL10:
 268:Drivers/STM32F4xx_HAL_Driver/Src/stm32f4xx_hal_rcc.c **** 
 256              		.loc 1 268 21 view .LVU78
 257 00f8 0546     		mov	r5, r0
 258              	.LVL11:
 271:Drivers/STM32F4xx_HAL_Driver/Src/stm32f4xx_hal_rcc.c ****         {
 259              		.loc 1 271 9 is_stmt 1 view .LVU79
 260              	.L13:
 271:Drivers/STM32F4xx_HAL_Driver/Src/stm32f4xx_hal_rcc.c ****         {
 261              		.loc 1 271 51 view .LVU80
 271:Drivers/STM32F4xx_HAL_Driver/Src/stm32f4xx_hal_rcc.c ****         {
 262              		.loc 1 271 15 is_stmt 0 view .LVU81
 263 00fa 664B     		ldr	r3, .L94
 264 00fc 1B68     		ldr	r3, [r3]
 271:Drivers/STM32F4xx_HAL_Driver/Src/stm32f4xx_hal_rcc.c ****         {
 265              		.loc 1 271 51 view .LVU82
 266 00fe 13F4003F 		tst	r3, #131072
 267 0102 C3D0     		beq	.L4
 273:Drivers/STM32F4xx_HAL_Driver/Src/stm32f4xx_hal_rcc.c ****           {
 268              		.loc 1 273 11 is_stmt 1 view .LVU83
 273:Drivers/STM32F4xx_HAL_Driver/Src/stm32f4xx_hal_rcc.c ****           {
 269              		.loc 1 273 15 is_stmt 0 view .LVU84
 270 0104 FFF7FEFF 		bl	HAL_GetTick
 271              	.LVL12:
 273:Drivers/STM32F4xx_HAL_Driver/Src/stm32f4xx_hal_rcc.c ****           {
 272              		.loc 1 273 29 discriminator 1 view .LVU85
 273 0108 401B     		subs	r0, r0, r5
 273:Drivers/STM32F4xx_HAL_Driver/Src/stm32f4xx_hal_rcc.c ****           {
 274              		.loc 1 273 13 discriminator 1 view .LVU86
 275 010a 6428     		cmp	r0, #100
 276 010c F5D9     		bls	.L13
 275:Drivers/STM32F4xx_HAL_Driver/Src/stm32f4xx_hal_rcc.c ****           }
 277              		.loc 1 275 20 view .LVU87
 278 010e 0320     		movs	r0, #3
 279 0110 66E1     		b	.L3
 280              	.LVL13:
 281              	.L84:
 290:Drivers/STM32F4xx_HAL_Driver/Src/stm32f4xx_hal_rcc.c ****     {
 282              		.loc 1 290 68 view .LVU88
 283 0112 604B     		ldr	r3, .L94
ARM GAS  /tmp/cc4ImuJe.s 			page 12


 284 0114 5B68     		ldr	r3, [r3, #4]
 290:Drivers/STM32F4xx_HAL_Driver/Src/stm32f4xx_hal_rcc.c ****     {
 285              		.loc 1 290 60 view .LVU89
 286 0116 13F4800F 		tst	r3, #4194304
 287 011a C6D1     		bne	.L17
 288              	.L16:
 293:Drivers/STM32F4xx_HAL_Driver/Src/stm32f4xx_hal_rcc.c ****       {
 289              		.loc 1 293 7 is_stmt 1 view .LVU90
 293:Drivers/STM32F4xx_HAL_Driver/Src/stm32f4xx_hal_rcc.c ****       {
 290              		.loc 1 293 11 is_stmt 0 view .LVU91
 291 011c 5D4B     		ldr	r3, .L94
 292 011e 1B68     		ldr	r3, [r3]
 293:Drivers/STM32F4xx_HAL_Driver/Src/stm32f4xx_hal_rcc.c ****       {
 293              		.loc 1 293 9 view .LVU92
 294 0120 13F0020F 		tst	r3, #2
 295 0124 03D0     		beq	.L18
 293:Drivers/STM32F4xx_HAL_Driver/Src/stm32f4xx_hal_rcc.c ****       {
 296              		.loc 1 293 78 discriminator 1 view .LVU93
 297 0126 E368     		ldr	r3, [r4, #12]
 293:Drivers/STM32F4xx_HAL_Driver/Src/stm32f4xx_hal_rcc.c ****       {
 298              		.loc 1 293 57 discriminator 1 view .LVU94
 299 0128 012B     		cmp	r3, #1
 300 012a 40F05681 		bne	.L56
 301              	.L18:
 301:Drivers/STM32F4xx_HAL_Driver/Src/stm32f4xx_hal_rcc.c ****       }
 302              		.loc 1 301 9 is_stmt 1 view .LVU95
 303 012e 594A     		ldr	r2, .L94
 304 0130 1368     		ldr	r3, [r2]
 305 0132 23F0F803 		bic	r3, r3, #248
 306 0136 2169     		ldr	r1, [r4, #16]
 307 0138 43EAC103 		orr	r3, r3, r1, lsl #3
 308 013c 1360     		str	r3, [r2]
 309              	.L15:
 321:Drivers/STM32F4xx_HAL_Driver/Src/stm32f4xx_hal_rcc.c ****           }
 322:Drivers/STM32F4xx_HAL_Driver/Src/stm32f4xx_hal_rcc.c ****         }
 323:Drivers/STM32F4xx_HAL_Driver/Src/stm32f4xx_hal_rcc.c **** 
 324:Drivers/STM32F4xx_HAL_Driver/Src/stm32f4xx_hal_rcc.c ****         /* Adjusts the Internal High Speed oscillator (HSI) calibration value. */
 325:Drivers/STM32F4xx_HAL_Driver/Src/stm32f4xx_hal_rcc.c ****         __HAL_RCC_HSI_CALIBRATIONVALUE_ADJUST(RCC_OscInitStruct->HSICalibrationValue);
 326:Drivers/STM32F4xx_HAL_Driver/Src/stm32f4xx_hal_rcc.c ****       }
 327:Drivers/STM32F4xx_HAL_Driver/Src/stm32f4xx_hal_rcc.c ****       else
 328:Drivers/STM32F4xx_HAL_Driver/Src/stm32f4xx_hal_rcc.c ****       {
 329:Drivers/STM32F4xx_HAL_Driver/Src/stm32f4xx_hal_rcc.c ****         /* Disable the Internal High Speed oscillator (HSI). */
 330:Drivers/STM32F4xx_HAL_Driver/Src/stm32f4xx_hal_rcc.c ****         __HAL_RCC_HSI_DISABLE();
 331:Drivers/STM32F4xx_HAL_Driver/Src/stm32f4xx_hal_rcc.c **** 
 332:Drivers/STM32F4xx_HAL_Driver/Src/stm32f4xx_hal_rcc.c ****         /* Get Start Tick*/
 333:Drivers/STM32F4xx_HAL_Driver/Src/stm32f4xx_hal_rcc.c ****         tickstart = HAL_GetTick();
 334:Drivers/STM32F4xx_HAL_Driver/Src/stm32f4xx_hal_rcc.c **** 
 335:Drivers/STM32F4xx_HAL_Driver/Src/stm32f4xx_hal_rcc.c ****         /* Wait till HSI is ready */
 336:Drivers/STM32F4xx_HAL_Driver/Src/stm32f4xx_hal_rcc.c ****         while(__HAL_RCC_GET_FLAG(RCC_FLAG_HSIRDY) != RESET)
 337:Drivers/STM32F4xx_HAL_Driver/Src/stm32f4xx_hal_rcc.c ****         {
 338:Drivers/STM32F4xx_HAL_Driver/Src/stm32f4xx_hal_rcc.c ****           if((HAL_GetTick() - tickstart ) > HSI_TIMEOUT_VALUE)
 339:Drivers/STM32F4xx_HAL_Driver/Src/stm32f4xx_hal_rcc.c ****           {
 340:Drivers/STM32F4xx_HAL_Driver/Src/stm32f4xx_hal_rcc.c ****             return HAL_TIMEOUT;
 341:Drivers/STM32F4xx_HAL_Driver/Src/stm32f4xx_hal_rcc.c ****           }
 342:Drivers/STM32F4xx_HAL_Driver/Src/stm32f4xx_hal_rcc.c ****         }
 343:Drivers/STM32F4xx_HAL_Driver/Src/stm32f4xx_hal_rcc.c ****       }
 344:Drivers/STM32F4xx_HAL_Driver/Src/stm32f4xx_hal_rcc.c ****     }
ARM GAS  /tmp/cc4ImuJe.s 			page 13


 345:Drivers/STM32F4xx_HAL_Driver/Src/stm32f4xx_hal_rcc.c ****   }
 346:Drivers/STM32F4xx_HAL_Driver/Src/stm32f4xx_hal_rcc.c ****   /*------------------------------ LSI Configuration -------------------------*/
 347:Drivers/STM32F4xx_HAL_Driver/Src/stm32f4xx_hal_rcc.c ****   if(((RCC_OscInitStruct->OscillatorType) & RCC_OSCILLATORTYPE_LSI) == RCC_OSCILLATORTYPE_LSI)
 310              		.loc 1 347 3 view .LVU96
 311              		.loc 1 347 25 is_stmt 0 view .LVU97
 312 013e 2368     		ldr	r3, [r4]
 313              		.loc 1 347 5 view .LVU98
 314 0140 13F0080F 		tst	r3, #8
 315 0144 42D0     		beq	.L24
 348:Drivers/STM32F4xx_HAL_Driver/Src/stm32f4xx_hal_rcc.c ****   {
 349:Drivers/STM32F4xx_HAL_Driver/Src/stm32f4xx_hal_rcc.c ****     /* Check the parameters */
 350:Drivers/STM32F4xx_HAL_Driver/Src/stm32f4xx_hal_rcc.c ****     assert_param(IS_RCC_LSI(RCC_OscInitStruct->LSIState));
 316              		.loc 1 350 5 is_stmt 1 view .LVU99
 351:Drivers/STM32F4xx_HAL_Driver/Src/stm32f4xx_hal_rcc.c **** 
 352:Drivers/STM32F4xx_HAL_Driver/Src/stm32f4xx_hal_rcc.c ****     /* Check the LSI State */
 353:Drivers/STM32F4xx_HAL_Driver/Src/stm32f4xx_hal_rcc.c ****     if((RCC_OscInitStruct->LSIState)!= RCC_LSI_OFF)
 317              		.loc 1 353 5 view .LVU100
 318              		.loc 1 353 26 is_stmt 0 view .LVU101
 319 0146 6369     		ldr	r3, [r4, #20]
 320              		.loc 1 353 7 view .LVU102
 321 0148 6BB3     		cbz	r3, .L25
 354:Drivers/STM32F4xx_HAL_Driver/Src/stm32f4xx_hal_rcc.c ****     {
 355:Drivers/STM32F4xx_HAL_Driver/Src/stm32f4xx_hal_rcc.c ****       /* Enable the Internal Low Speed oscillator (LSI). */
 356:Drivers/STM32F4xx_HAL_Driver/Src/stm32f4xx_hal_rcc.c ****       __HAL_RCC_LSI_ENABLE();
 322              		.loc 1 356 7 is_stmt 1 view .LVU103
 323 014a 534B     		ldr	r3, .L94+4
 324 014c 0122     		movs	r2, #1
 325 014e C3F8802E 		str	r2, [r3, #3712]
 357:Drivers/STM32F4xx_HAL_Driver/Src/stm32f4xx_hal_rcc.c **** 
 358:Drivers/STM32F4xx_HAL_Driver/Src/stm32f4xx_hal_rcc.c ****       /* Get Start Tick*/
 359:Drivers/STM32F4xx_HAL_Driver/Src/stm32f4xx_hal_rcc.c ****       tickstart = HAL_GetTick();
 326              		.loc 1 359 7 view .LVU104
 327              		.loc 1 359 19 is_stmt 0 view .LVU105
 328 0152 FFF7FEFF 		bl	HAL_GetTick
 329              	.LVL14:
 330 0156 0546     		mov	r5, r0
 331              	.LVL15:
 360:Drivers/STM32F4xx_HAL_Driver/Src/stm32f4xx_hal_rcc.c **** 
 361:Drivers/STM32F4xx_HAL_Driver/Src/stm32f4xx_hal_rcc.c ****       /* Wait till LSI is ready */
 362:Drivers/STM32F4xx_HAL_Driver/Src/stm32f4xx_hal_rcc.c ****       while(__HAL_RCC_GET_FLAG(RCC_FLAG_LSIRDY) == RESET)
 332              		.loc 1 362 7 is_stmt 1 view .LVU106
 333              	.L26:
 334              		.loc 1 362 49 view .LVU107
 335              		.loc 1 362 13 is_stmt 0 view .LVU108
 336 0158 4E4B     		ldr	r3, .L94
 337 015a 5B6F     		ldr	r3, [r3, #116]
 338              		.loc 1 362 49 view .LVU109
 339 015c 13F0020F 		tst	r3, #2
 340 0160 34D1     		bne	.L24
 363:Drivers/STM32F4xx_HAL_Driver/Src/stm32f4xx_hal_rcc.c ****       {
 364:Drivers/STM32F4xx_HAL_Driver/Src/stm32f4xx_hal_rcc.c ****         if((HAL_GetTick() - tickstart ) > LSI_TIMEOUT_VALUE)
 341              		.loc 1 364 9 is_stmt 1 view .LVU110
 342              		.loc 1 364 13 is_stmt 0 view .LVU111
 343 0162 FFF7FEFF 		bl	HAL_GetTick
 344              	.LVL16:
 345              		.loc 1 364 27 discriminator 1 view .LVU112
 346 0166 401B     		subs	r0, r0, r5
ARM GAS  /tmp/cc4ImuJe.s 			page 14


 347              		.loc 1 364 11 discriminator 1 view .LVU113
 348 0168 0228     		cmp	r0, #2
 349 016a F5D9     		bls	.L26
 365:Drivers/STM32F4xx_HAL_Driver/Src/stm32f4xx_hal_rcc.c ****         {
 366:Drivers/STM32F4xx_HAL_Driver/Src/stm32f4xx_hal_rcc.c ****           return HAL_TIMEOUT;
 350              		.loc 1 366 18 view .LVU114
 351 016c 0320     		movs	r0, #3
 352 016e 37E1     		b	.L3
 353              	.L85:
 325:Drivers/STM32F4xx_HAL_Driver/Src/stm32f4xx_hal_rcc.c ****       }
 354              		.loc 1 325 9 is_stmt 1 view .LVU115
 355 0170 484A     		ldr	r2, .L94
 356 0172 1368     		ldr	r3, [r2]
 357 0174 23F0F803 		bic	r3, r3, #248
 358 0178 2169     		ldr	r1, [r4, #16]
 359 017a 43EAC103 		orr	r3, r3, r1, lsl #3
 360 017e 1360     		str	r3, [r2]
 361 0180 DDE7     		b	.L15
 362              	.LVL17:
 363              	.L19:
 330:Drivers/STM32F4xx_HAL_Driver/Src/stm32f4xx_hal_rcc.c **** 
 364              		.loc 1 330 9 view .LVU116
 365 0182 454B     		ldr	r3, .L94+4
 366 0184 0022     		movs	r2, #0
 367 0186 1A60     		str	r2, [r3]
 333:Drivers/STM32F4xx_HAL_Driver/Src/stm32f4xx_hal_rcc.c **** 
 368              		.loc 1 333 9 view .LVU117
 333:Drivers/STM32F4xx_HAL_Driver/Src/stm32f4xx_hal_rcc.c **** 
 369              		.loc 1 333 21 is_stmt 0 view .LVU118
 370 0188 FFF7FEFF 		bl	HAL_GetTick
 371              	.LVL18:
 372 018c 0546     		mov	r5, r0
 373              	.LVL19:
 336:Drivers/STM32F4xx_HAL_Driver/Src/stm32f4xx_hal_rcc.c ****         {
 374              		.loc 1 336 9 is_stmt 1 view .LVU119
 375              	.L22:
 336:Drivers/STM32F4xx_HAL_Driver/Src/stm32f4xx_hal_rcc.c ****         {
 376              		.loc 1 336 51 view .LVU120
 336:Drivers/STM32F4xx_HAL_Driver/Src/stm32f4xx_hal_rcc.c ****         {
 377              		.loc 1 336 15 is_stmt 0 view .LVU121
 378 018e 414B     		ldr	r3, .L94
 379 0190 1B68     		ldr	r3, [r3]
 336:Drivers/STM32F4xx_HAL_Driver/Src/stm32f4xx_hal_rcc.c ****         {
 380              		.loc 1 336 51 view .LVU122
 381 0192 13F0020F 		tst	r3, #2
 382 0196 D2D0     		beq	.L15
 338:Drivers/STM32F4xx_HAL_Driver/Src/stm32f4xx_hal_rcc.c ****           {
 383              		.loc 1 338 11 is_stmt 1 view .LVU123
 338:Drivers/STM32F4xx_HAL_Driver/Src/stm32f4xx_hal_rcc.c ****           {
 384              		.loc 1 338 15 is_stmt 0 view .LVU124
 385 0198 FFF7FEFF 		bl	HAL_GetTick
 386              	.LVL20:
 338:Drivers/STM32F4xx_HAL_Driver/Src/stm32f4xx_hal_rcc.c ****           {
 387              		.loc 1 338 29 discriminator 1 view .LVU125
 388 019c 401B     		subs	r0, r0, r5
 338:Drivers/STM32F4xx_HAL_Driver/Src/stm32f4xx_hal_rcc.c ****           {
 389              		.loc 1 338 13 discriminator 1 view .LVU126
ARM GAS  /tmp/cc4ImuJe.s 			page 15


 390 019e 0228     		cmp	r0, #2
 391 01a0 F5D9     		bls	.L22
 340:Drivers/STM32F4xx_HAL_Driver/Src/stm32f4xx_hal_rcc.c ****           }
 392              		.loc 1 340 20 view .LVU127
 393 01a2 0320     		movs	r0, #3
 394 01a4 1CE1     		b	.L3
 395              	.LVL21:
 396              	.L25:
 367:Drivers/STM32F4xx_HAL_Driver/Src/stm32f4xx_hal_rcc.c ****         }
 368:Drivers/STM32F4xx_HAL_Driver/Src/stm32f4xx_hal_rcc.c ****       }
 369:Drivers/STM32F4xx_HAL_Driver/Src/stm32f4xx_hal_rcc.c ****     }
 370:Drivers/STM32F4xx_HAL_Driver/Src/stm32f4xx_hal_rcc.c ****     else
 371:Drivers/STM32F4xx_HAL_Driver/Src/stm32f4xx_hal_rcc.c ****     {
 372:Drivers/STM32F4xx_HAL_Driver/Src/stm32f4xx_hal_rcc.c ****       /* Disable the Internal Low Speed oscillator (LSI). */
 373:Drivers/STM32F4xx_HAL_Driver/Src/stm32f4xx_hal_rcc.c ****       __HAL_RCC_LSI_DISABLE();
 397              		.loc 1 373 7 is_stmt 1 view .LVU128
 398 01a6 3C4B     		ldr	r3, .L94+4
 399 01a8 0022     		movs	r2, #0
 400 01aa C3F8802E 		str	r2, [r3, #3712]
 374:Drivers/STM32F4xx_HAL_Driver/Src/stm32f4xx_hal_rcc.c **** 
 375:Drivers/STM32F4xx_HAL_Driver/Src/stm32f4xx_hal_rcc.c ****       /* Get Start Tick */
 376:Drivers/STM32F4xx_HAL_Driver/Src/stm32f4xx_hal_rcc.c ****       tickstart = HAL_GetTick();
 401              		.loc 1 376 7 view .LVU129
 402              		.loc 1 376 19 is_stmt 0 view .LVU130
 403 01ae FFF7FEFF 		bl	HAL_GetTick
 404              	.LVL22:
 405 01b2 0546     		mov	r5, r0
 406              	.LVL23:
 377:Drivers/STM32F4xx_HAL_Driver/Src/stm32f4xx_hal_rcc.c **** 
 378:Drivers/STM32F4xx_HAL_Driver/Src/stm32f4xx_hal_rcc.c ****       /* Wait till LSI is ready */
 379:Drivers/STM32F4xx_HAL_Driver/Src/stm32f4xx_hal_rcc.c ****       while(__HAL_RCC_GET_FLAG(RCC_FLAG_LSIRDY) != RESET)
 407              		.loc 1 379 7 is_stmt 1 view .LVU131
 408              	.L28:
 409              		.loc 1 379 49 view .LVU132
 410              		.loc 1 379 13 is_stmt 0 view .LVU133
 411 01b4 374B     		ldr	r3, .L94
 412 01b6 5B6F     		ldr	r3, [r3, #116]
 413              		.loc 1 379 49 view .LVU134
 414 01b8 13F0020F 		tst	r3, #2
 415 01bc 06D0     		beq	.L24
 380:Drivers/STM32F4xx_HAL_Driver/Src/stm32f4xx_hal_rcc.c ****       {
 381:Drivers/STM32F4xx_HAL_Driver/Src/stm32f4xx_hal_rcc.c ****         if((HAL_GetTick() - tickstart ) > LSI_TIMEOUT_VALUE)
 416              		.loc 1 381 9 is_stmt 1 view .LVU135
 417              		.loc 1 381 13 is_stmt 0 view .LVU136
 418 01be FFF7FEFF 		bl	HAL_GetTick
 419              	.LVL24:
 420              		.loc 1 381 27 discriminator 1 view .LVU137
 421 01c2 401B     		subs	r0, r0, r5
 422              		.loc 1 381 11 discriminator 1 view .LVU138
 423 01c4 0228     		cmp	r0, #2
 424 01c6 F5D9     		bls	.L28
 382:Drivers/STM32F4xx_HAL_Driver/Src/stm32f4xx_hal_rcc.c ****         {
 383:Drivers/STM32F4xx_HAL_Driver/Src/stm32f4xx_hal_rcc.c ****           return HAL_TIMEOUT;
 425              		.loc 1 383 18 view .LVU139
 426 01c8 0320     		movs	r0, #3
 427 01ca 09E1     		b	.L3
 428              	.LVL25:
ARM GAS  /tmp/cc4ImuJe.s 			page 16


 429              	.L24:
 384:Drivers/STM32F4xx_HAL_Driver/Src/stm32f4xx_hal_rcc.c ****         }
 385:Drivers/STM32F4xx_HAL_Driver/Src/stm32f4xx_hal_rcc.c ****       }
 386:Drivers/STM32F4xx_HAL_Driver/Src/stm32f4xx_hal_rcc.c ****     }
 387:Drivers/STM32F4xx_HAL_Driver/Src/stm32f4xx_hal_rcc.c ****   }
 388:Drivers/STM32F4xx_HAL_Driver/Src/stm32f4xx_hal_rcc.c ****   /*------------------------------ LSE Configuration -------------------------*/
 389:Drivers/STM32F4xx_HAL_Driver/Src/stm32f4xx_hal_rcc.c ****   if(((RCC_OscInitStruct->OscillatorType) & RCC_OSCILLATORTYPE_LSE) == RCC_OSCILLATORTYPE_LSE)
 430              		.loc 1 389 3 is_stmt 1 view .LVU140
 431              		.loc 1 389 25 is_stmt 0 view .LVU141
 432 01cc 2368     		ldr	r3, [r4]
 433              		.loc 1 389 5 view .LVU142
 434 01ce 13F0040F 		tst	r3, #4
 435 01d2 77D0     		beq	.L30
 436              	.LBB2:
 390:Drivers/STM32F4xx_HAL_Driver/Src/stm32f4xx_hal_rcc.c ****   {
 391:Drivers/STM32F4xx_HAL_Driver/Src/stm32f4xx_hal_rcc.c ****     FlagStatus       pwrclkchanged = RESET;
 437              		.loc 1 391 5 is_stmt 1 view .LVU143
 438              	.LVL26:
 392:Drivers/STM32F4xx_HAL_Driver/Src/stm32f4xx_hal_rcc.c **** 
 393:Drivers/STM32F4xx_HAL_Driver/Src/stm32f4xx_hal_rcc.c ****     /* Check the parameters */
 394:Drivers/STM32F4xx_HAL_Driver/Src/stm32f4xx_hal_rcc.c ****     assert_param(IS_RCC_LSE(RCC_OscInitStruct->LSEState));
 439              		.loc 1 394 5 view .LVU144
 395:Drivers/STM32F4xx_HAL_Driver/Src/stm32f4xx_hal_rcc.c **** 
 396:Drivers/STM32F4xx_HAL_Driver/Src/stm32f4xx_hal_rcc.c ****     /* Update LSE configuration in Backup Domain control register    */
 397:Drivers/STM32F4xx_HAL_Driver/Src/stm32f4xx_hal_rcc.c ****     /* Requires to enable write access to Backup Domain of necessary */
 398:Drivers/STM32F4xx_HAL_Driver/Src/stm32f4xx_hal_rcc.c ****     if(__HAL_RCC_PWR_IS_CLK_DISABLED())
 440              		.loc 1 398 5 view .LVU145
 441              		.loc 1 398 8 is_stmt 0 view .LVU146
 442 01d4 2F4B     		ldr	r3, .L94
 443 01d6 1B6C     		ldr	r3, [r3, #64]
 444              		.loc 1 398 7 view .LVU147
 445 01d8 13F0805F 		tst	r3, #268435456
 446 01dc 33D1     		bne	.L61
 399:Drivers/STM32F4xx_HAL_Driver/Src/stm32f4xx_hal_rcc.c ****     {
 400:Drivers/STM32F4xx_HAL_Driver/Src/stm32f4xx_hal_rcc.c ****       __HAL_RCC_PWR_CLK_ENABLE();
 447              		.loc 1 400 7 is_stmt 1 view .LVU148
 448              	.LBB3:
 449              		.loc 1 400 7 view .LVU149
 450 01de 0023     		movs	r3, #0
 451 01e0 0193     		str	r3, [sp, #4]
 452              		.loc 1 400 7 view .LVU150
 453 01e2 2C4B     		ldr	r3, .L94
 454 01e4 1A6C     		ldr	r2, [r3, #64]
 455 01e6 42F08052 		orr	r2, r2, #268435456
 456 01ea 1A64     		str	r2, [r3, #64]
 457              		.loc 1 400 7 view .LVU151
 458 01ec 1B6C     		ldr	r3, [r3, #64]
 459 01ee 03F08053 		and	r3, r3, #268435456
 460 01f2 0193     		str	r3, [sp, #4]
 461              		.loc 1 400 7 view .LVU152
 462 01f4 019B     		ldr	r3, [sp, #4]
 463              	.LBE3:
 464              		.loc 1 400 7 view .LVU153
 401:Drivers/STM32F4xx_HAL_Driver/Src/stm32f4xx_hal_rcc.c ****       pwrclkchanged = SET;
 465              		.loc 1 401 7 view .LVU154
 466              	.LVL27:
 467              		.loc 1 401 21 is_stmt 0 view .LVU155
ARM GAS  /tmp/cc4ImuJe.s 			page 17


 468 01f6 0125     		movs	r5, #1
 469              	.LVL28:
 470              	.L31:
 402:Drivers/STM32F4xx_HAL_Driver/Src/stm32f4xx_hal_rcc.c ****     }
 403:Drivers/STM32F4xx_HAL_Driver/Src/stm32f4xx_hal_rcc.c **** 
 404:Drivers/STM32F4xx_HAL_Driver/Src/stm32f4xx_hal_rcc.c ****     if(HAL_IS_BIT_CLR(PWR->CR, PWR_CR_DBP))
 471              		.loc 1 404 5 is_stmt 1 view .LVU156
 472              		.loc 1 404 8 is_stmt 0 view .LVU157
 473 01f8 284B     		ldr	r3, .L94+8
 474 01fa 1B68     		ldr	r3, [r3]
 475              		.loc 1 404 7 view .LVU158
 476 01fc 13F4807F 		tst	r3, #256
 477 0200 23D0     		beq	.L86
 478              	.L32:
 405:Drivers/STM32F4xx_HAL_Driver/Src/stm32f4xx_hal_rcc.c ****     {
 406:Drivers/STM32F4xx_HAL_Driver/Src/stm32f4xx_hal_rcc.c ****       /* Enable write access to Backup domain */
 407:Drivers/STM32F4xx_HAL_Driver/Src/stm32f4xx_hal_rcc.c ****       SET_BIT(PWR->CR, PWR_CR_DBP);
 408:Drivers/STM32F4xx_HAL_Driver/Src/stm32f4xx_hal_rcc.c **** 
 409:Drivers/STM32F4xx_HAL_Driver/Src/stm32f4xx_hal_rcc.c ****       /* Wait for Backup domain Write protection disable */
 410:Drivers/STM32F4xx_HAL_Driver/Src/stm32f4xx_hal_rcc.c ****       tickstart = HAL_GetTick();
 411:Drivers/STM32F4xx_HAL_Driver/Src/stm32f4xx_hal_rcc.c **** 
 412:Drivers/STM32F4xx_HAL_Driver/Src/stm32f4xx_hal_rcc.c ****       while(HAL_IS_BIT_CLR(PWR->CR, PWR_CR_DBP))
 413:Drivers/STM32F4xx_HAL_Driver/Src/stm32f4xx_hal_rcc.c ****       {
 414:Drivers/STM32F4xx_HAL_Driver/Src/stm32f4xx_hal_rcc.c ****         if((HAL_GetTick() - tickstart) > RCC_DBP_TIMEOUT_VALUE)
 415:Drivers/STM32F4xx_HAL_Driver/Src/stm32f4xx_hal_rcc.c ****         {
 416:Drivers/STM32F4xx_HAL_Driver/Src/stm32f4xx_hal_rcc.c ****           return HAL_TIMEOUT;
 417:Drivers/STM32F4xx_HAL_Driver/Src/stm32f4xx_hal_rcc.c ****         }
 418:Drivers/STM32F4xx_HAL_Driver/Src/stm32f4xx_hal_rcc.c ****       }
 419:Drivers/STM32F4xx_HAL_Driver/Src/stm32f4xx_hal_rcc.c ****     }
 420:Drivers/STM32F4xx_HAL_Driver/Src/stm32f4xx_hal_rcc.c **** 
 421:Drivers/STM32F4xx_HAL_Driver/Src/stm32f4xx_hal_rcc.c ****     /* Set the new LSE configuration -----------------------------------------*/
 422:Drivers/STM32F4xx_HAL_Driver/Src/stm32f4xx_hal_rcc.c ****     __HAL_RCC_LSE_CONFIG(RCC_OscInitStruct->LSEState);
 479              		.loc 1 422 5 is_stmt 1 view .LVU159
 480              		.loc 1 422 5 view .LVU160
 481 0202 A368     		ldr	r3, [r4, #8]
 482 0204 012B     		cmp	r3, #1
 483 0206 34D0     		beq	.L87
 484              		.loc 1 422 5 discriminator 2 view .LVU161
 485 0208 052B     		cmp	r3, #5
 486 020a 38D0     		beq	.L88
 487              		.loc 1 422 5 discriminator 5 view .LVU162
 488 020c 214B     		ldr	r3, .L94
 489 020e 1A6F     		ldr	r2, [r3, #112]
 490 0210 22F00102 		bic	r2, r2, #1
 491 0214 1A67     		str	r2, [r3, #112]
 492              		.loc 1 422 5 view .LVU163
 493              		.loc 1 422 5 is_stmt 0 discriminator 5 view .LVU164
 494 0216 1A6F     		ldr	r2, [r3, #112]
 495 0218 22F00402 		bic	r2, r2, #4
 496 021c 1A67     		str	r2, [r3, #112]
 497              	.L36:
 498              		.loc 1 422 5 is_stmt 1 discriminator 7 view .LVU165
 423:Drivers/STM32F4xx_HAL_Driver/Src/stm32f4xx_hal_rcc.c ****     /* Check the LSE State */
 424:Drivers/STM32F4xx_HAL_Driver/Src/stm32f4xx_hal_rcc.c ****     if((RCC_OscInitStruct->LSEState) != RCC_LSE_OFF)
 499              		.loc 1 424 5 view .LVU166
 500              		.loc 1 424 26 is_stmt 0 view .LVU167
 501 021e A368     		ldr	r3, [r4, #8]
ARM GAS  /tmp/cc4ImuJe.s 			page 18


 502              		.loc 1 424 7 view .LVU168
 503 0220 002B     		cmp	r3, #0
 504 0222 3DD0     		beq	.L38
 425:Drivers/STM32F4xx_HAL_Driver/Src/stm32f4xx_hal_rcc.c ****     {
 426:Drivers/STM32F4xx_HAL_Driver/Src/stm32f4xx_hal_rcc.c ****       /* Get Start Tick*/
 427:Drivers/STM32F4xx_HAL_Driver/Src/stm32f4xx_hal_rcc.c ****       tickstart = HAL_GetTick();
 505              		.loc 1 427 7 is_stmt 1 view .LVU169
 506              		.loc 1 427 19 is_stmt 0 view .LVU170
 507 0224 FFF7FEFF 		bl	HAL_GetTick
 508              	.LVL29:
 509 0228 0646     		mov	r6, r0
 510              	.LVL30:
 428:Drivers/STM32F4xx_HAL_Driver/Src/stm32f4xx_hal_rcc.c **** 
 429:Drivers/STM32F4xx_HAL_Driver/Src/stm32f4xx_hal_rcc.c ****       /* Wait till LSE is ready */
 430:Drivers/STM32F4xx_HAL_Driver/Src/stm32f4xx_hal_rcc.c ****       while(__HAL_RCC_GET_FLAG(RCC_FLAG_LSERDY) == RESET)
 511              		.loc 1 430 7 is_stmt 1 view .LVU171
 512              	.L39:
 513              		.loc 1 430 49 view .LVU172
 514              		.loc 1 430 13 is_stmt 0 view .LVU173
 515 022a 1A4B     		ldr	r3, .L94
 516 022c 1B6F     		ldr	r3, [r3, #112]
 517              		.loc 1 430 49 view .LVU174
 518 022e 13F0020F 		tst	r3, #2
 519 0232 46D1     		bne	.L41
 431:Drivers/STM32F4xx_HAL_Driver/Src/stm32f4xx_hal_rcc.c ****       {
 432:Drivers/STM32F4xx_HAL_Driver/Src/stm32f4xx_hal_rcc.c ****         if((HAL_GetTick() - tickstart ) > RCC_LSE_TIMEOUT_VALUE)
 520              		.loc 1 432 9 is_stmt 1 view .LVU175
 521              		.loc 1 432 13 is_stmt 0 view .LVU176
 522 0234 FFF7FEFF 		bl	HAL_GetTick
 523              	.LVL31:
 524              		.loc 1 432 27 discriminator 1 view .LVU177
 525 0238 801B     		subs	r0, r0, r6
 526              		.loc 1 432 11 discriminator 1 view .LVU178
 527 023a 41F28833 		movw	r3, #5000
 528 023e 9842     		cmp	r0, r3
 529 0240 F3D9     		bls	.L39
 433:Drivers/STM32F4xx_HAL_Driver/Src/stm32f4xx_hal_rcc.c ****         {
 434:Drivers/STM32F4xx_HAL_Driver/Src/stm32f4xx_hal_rcc.c ****           return HAL_TIMEOUT;
 530              		.loc 1 434 18 view .LVU179
 531 0242 0320     		movs	r0, #3
 532 0244 CCE0     		b	.L3
 533              	.LVL32:
 534              	.L61:
 391:Drivers/STM32F4xx_HAL_Driver/Src/stm32f4xx_hal_rcc.c **** 
 535              		.loc 1 391 22 view .LVU180
 536 0246 0025     		movs	r5, #0
 537 0248 D6E7     		b	.L31
 538              	.LVL33:
 539              	.L86:
 407:Drivers/STM32F4xx_HAL_Driver/Src/stm32f4xx_hal_rcc.c **** 
 540              		.loc 1 407 7 is_stmt 1 view .LVU181
 541 024a 144A     		ldr	r2, .L94+8
 542 024c 1368     		ldr	r3, [r2]
 543 024e 43F48073 		orr	r3, r3, #256
 544 0252 1360     		str	r3, [r2]
 410:Drivers/STM32F4xx_HAL_Driver/Src/stm32f4xx_hal_rcc.c **** 
 545              		.loc 1 410 7 view .LVU182
ARM GAS  /tmp/cc4ImuJe.s 			page 19


 410:Drivers/STM32F4xx_HAL_Driver/Src/stm32f4xx_hal_rcc.c **** 
 546              		.loc 1 410 19 is_stmt 0 view .LVU183
 547 0254 FFF7FEFF 		bl	HAL_GetTick
 548              	.LVL34:
 549 0258 0646     		mov	r6, r0
 550              	.LVL35:
 412:Drivers/STM32F4xx_HAL_Driver/Src/stm32f4xx_hal_rcc.c ****       {
 551              		.loc 1 412 7 is_stmt 1 view .LVU184
 552              	.L33:
 412:Drivers/STM32F4xx_HAL_Driver/Src/stm32f4xx_hal_rcc.c ****       {
 553              		.loc 1 412 13 view .LVU185
 554 025a 104B     		ldr	r3, .L94+8
 555 025c 1B68     		ldr	r3, [r3]
 556 025e 13F4807F 		tst	r3, #256
 557 0262 CED1     		bne	.L32
 414:Drivers/STM32F4xx_HAL_Driver/Src/stm32f4xx_hal_rcc.c ****         {
 558              		.loc 1 414 9 view .LVU186
 414:Drivers/STM32F4xx_HAL_Driver/Src/stm32f4xx_hal_rcc.c ****         {
 559              		.loc 1 414 13 is_stmt 0 view .LVU187
 560 0264 FFF7FEFF 		bl	HAL_GetTick
 561              	.LVL36:
 414:Drivers/STM32F4xx_HAL_Driver/Src/stm32f4xx_hal_rcc.c ****         {
 562              		.loc 1 414 27 discriminator 1 view .LVU188
 563 0268 801B     		subs	r0, r0, r6
 414:Drivers/STM32F4xx_HAL_Driver/Src/stm32f4xx_hal_rcc.c ****         {
 564              		.loc 1 414 11 discriminator 1 view .LVU189
 565 026a 0228     		cmp	r0, #2
 566 026c F5D9     		bls	.L33
 416:Drivers/STM32F4xx_HAL_Driver/Src/stm32f4xx_hal_rcc.c ****         }
 567              		.loc 1 416 18 view .LVU190
 568 026e 0320     		movs	r0, #3
 569 0270 B6E0     		b	.L3
 570              	.LVL37:
 571              	.L87:
 422:Drivers/STM32F4xx_HAL_Driver/Src/stm32f4xx_hal_rcc.c ****     /* Check the LSE State */
 572              		.loc 1 422 5 is_stmt 1 discriminator 1 view .LVU191
 573 0272 084A     		ldr	r2, .L94
 574 0274 136F     		ldr	r3, [r2, #112]
 575 0276 43F00103 		orr	r3, r3, #1
 576 027a 1367     		str	r3, [r2, #112]
 577 027c CFE7     		b	.L36
 578              	.L88:
 422:Drivers/STM32F4xx_HAL_Driver/Src/stm32f4xx_hal_rcc.c ****     /* Check the LSE State */
 579              		.loc 1 422 5 discriminator 4 view .LVU192
 580 027e 054B     		ldr	r3, .L94
 581 0280 1A6F     		ldr	r2, [r3, #112]
 582 0282 42F00402 		orr	r2, r2, #4
 583 0286 1A67     		str	r2, [r3, #112]
 422:Drivers/STM32F4xx_HAL_Driver/Src/stm32f4xx_hal_rcc.c ****     /* Check the LSE State */
 584              		.loc 1 422 5 view .LVU193
 422:Drivers/STM32F4xx_HAL_Driver/Src/stm32f4xx_hal_rcc.c ****     /* Check the LSE State */
 585              		.loc 1 422 5 is_stmt 0 discriminator 4 view .LVU194
 586 0288 1A6F     		ldr	r2, [r3, #112]
 587 028a 42F00102 		orr	r2, r2, #1
 588 028e 1A67     		str	r2, [r3, #112]
 589 0290 C5E7     		b	.L36
 590              	.L95:
ARM GAS  /tmp/cc4ImuJe.s 			page 20


 591 0292 00BF     		.align	2
 592              	.L94:
 593 0294 00380240 		.word	1073887232
 594 0298 00004742 		.word	1111949312
 595 029c 00700040 		.word	1073770496
 596              	.L38:
 435:Drivers/STM32F4xx_HAL_Driver/Src/stm32f4xx_hal_rcc.c ****         }
 436:Drivers/STM32F4xx_HAL_Driver/Src/stm32f4xx_hal_rcc.c ****       }
 437:Drivers/STM32F4xx_HAL_Driver/Src/stm32f4xx_hal_rcc.c ****     }
 438:Drivers/STM32F4xx_HAL_Driver/Src/stm32f4xx_hal_rcc.c ****     else
 439:Drivers/STM32F4xx_HAL_Driver/Src/stm32f4xx_hal_rcc.c ****     {
 440:Drivers/STM32F4xx_HAL_Driver/Src/stm32f4xx_hal_rcc.c ****       /* Get Start Tick */
 441:Drivers/STM32F4xx_HAL_Driver/Src/stm32f4xx_hal_rcc.c ****       tickstart = HAL_GetTick();
 597              		.loc 1 441 7 is_stmt 1 view .LVU195
 598              		.loc 1 441 19 is_stmt 0 view .LVU196
 599 02a0 FFF7FEFF 		bl	HAL_GetTick
 600              	.LVL38:
 601 02a4 0646     		mov	r6, r0
 602              	.LVL39:
 442:Drivers/STM32F4xx_HAL_Driver/Src/stm32f4xx_hal_rcc.c **** 
 443:Drivers/STM32F4xx_HAL_Driver/Src/stm32f4xx_hal_rcc.c ****       /* Wait till LSE is ready */
 444:Drivers/STM32F4xx_HAL_Driver/Src/stm32f4xx_hal_rcc.c ****       while(__HAL_RCC_GET_FLAG(RCC_FLAG_LSERDY) != RESET)
 603              		.loc 1 444 7 is_stmt 1 view .LVU197
 604              	.L42:
 605              		.loc 1 444 49 view .LVU198
 606              		.loc 1 444 13 is_stmt 0 view .LVU199
 607 02a6 564B     		ldr	r3, .L96
 608 02a8 1B6F     		ldr	r3, [r3, #112]
 609              		.loc 1 444 49 view .LVU200
 610 02aa 13F0020F 		tst	r3, #2
 611 02ae 08D0     		beq	.L41
 445:Drivers/STM32F4xx_HAL_Driver/Src/stm32f4xx_hal_rcc.c ****       {
 446:Drivers/STM32F4xx_HAL_Driver/Src/stm32f4xx_hal_rcc.c ****         if((HAL_GetTick() - tickstart ) > RCC_LSE_TIMEOUT_VALUE)
 612              		.loc 1 446 9 is_stmt 1 view .LVU201
 613              		.loc 1 446 13 is_stmt 0 view .LVU202
 614 02b0 FFF7FEFF 		bl	HAL_GetTick
 615              	.LVL40:
 616              		.loc 1 446 27 discriminator 1 view .LVU203
 617 02b4 801B     		subs	r0, r0, r6
 618              		.loc 1 446 11 discriminator 1 view .LVU204
 619 02b6 41F28833 		movw	r3, #5000
 620 02ba 9842     		cmp	r0, r3
 621 02bc F3D9     		bls	.L42
 447:Drivers/STM32F4xx_HAL_Driver/Src/stm32f4xx_hal_rcc.c ****         {
 448:Drivers/STM32F4xx_HAL_Driver/Src/stm32f4xx_hal_rcc.c ****           return HAL_TIMEOUT;
 622              		.loc 1 448 18 view .LVU205
 623 02be 0320     		movs	r0, #3
 624 02c0 8EE0     		b	.L3
 625              	.L41:
 449:Drivers/STM32F4xx_HAL_Driver/Src/stm32f4xx_hal_rcc.c ****         }
 450:Drivers/STM32F4xx_HAL_Driver/Src/stm32f4xx_hal_rcc.c ****       }
 451:Drivers/STM32F4xx_HAL_Driver/Src/stm32f4xx_hal_rcc.c ****     }
 452:Drivers/STM32F4xx_HAL_Driver/Src/stm32f4xx_hal_rcc.c **** 
 453:Drivers/STM32F4xx_HAL_Driver/Src/stm32f4xx_hal_rcc.c ****     /* Restore clock configuration if changed */
 454:Drivers/STM32F4xx_HAL_Driver/Src/stm32f4xx_hal_rcc.c ****     if(pwrclkchanged == SET)
 626              		.loc 1 454 5 is_stmt 1 view .LVU206
 627              		.loc 1 454 7 is_stmt 0 view .LVU207
ARM GAS  /tmp/cc4ImuJe.s 			page 21


 628 02c2 EDB9     		cbnz	r5, .L89
 629              	.LVL41:
 630              	.L30:
 631              		.loc 1 454 7 view .LVU208
 632              	.LBE2:
 455:Drivers/STM32F4xx_HAL_Driver/Src/stm32f4xx_hal_rcc.c ****     {
 456:Drivers/STM32F4xx_HAL_Driver/Src/stm32f4xx_hal_rcc.c ****       __HAL_RCC_PWR_CLK_DISABLE();
 457:Drivers/STM32F4xx_HAL_Driver/Src/stm32f4xx_hal_rcc.c ****     }
 458:Drivers/STM32F4xx_HAL_Driver/Src/stm32f4xx_hal_rcc.c ****   }
 459:Drivers/STM32F4xx_HAL_Driver/Src/stm32f4xx_hal_rcc.c ****   /*-------------------------------- PLL Configuration -----------------------*/
 460:Drivers/STM32F4xx_HAL_Driver/Src/stm32f4xx_hal_rcc.c ****   /* Check the parameters */
 461:Drivers/STM32F4xx_HAL_Driver/Src/stm32f4xx_hal_rcc.c ****   assert_param(IS_RCC_PLL(RCC_OscInitStruct->PLL.PLLState));
 633              		.loc 1 461 3 is_stmt 1 view .LVU209
 462:Drivers/STM32F4xx_HAL_Driver/Src/stm32f4xx_hal_rcc.c ****   if ((RCC_OscInitStruct->PLL.PLLState) != RCC_PLL_NONE)
 634              		.loc 1 462 3 view .LVU210
 635              		.loc 1 462 30 is_stmt 0 view .LVU211
 636 02c4 A369     		ldr	r3, [r4, #24]
 637              		.loc 1 462 6 view .LVU212
 638 02c6 002B     		cmp	r3, #0
 639 02c8 00F08980 		beq	.L65
 463:Drivers/STM32F4xx_HAL_Driver/Src/stm32f4xx_hal_rcc.c ****   {
 464:Drivers/STM32F4xx_HAL_Driver/Src/stm32f4xx_hal_rcc.c ****     /* Check if the PLL is used as system clock or not */
 465:Drivers/STM32F4xx_HAL_Driver/Src/stm32f4xx_hal_rcc.c ****     if(__HAL_RCC_GET_SYSCLK_SOURCE() != RCC_CFGR_SWS_PLL)
 640              		.loc 1 465 5 is_stmt 1 view .LVU213
 641              		.loc 1 465 8 is_stmt 0 view .LVU214
 642 02cc 4C4A     		ldr	r2, .L96
 643 02ce 9268     		ldr	r2, [r2, #8]
 644 02d0 02F00C02 		and	r2, r2, #12
 645              		.loc 1 465 7 view .LVU215
 646 02d4 082A     		cmp	r2, #8
 647 02d6 51D0     		beq	.L44
 466:Drivers/STM32F4xx_HAL_Driver/Src/stm32f4xx_hal_rcc.c ****     {
 467:Drivers/STM32F4xx_HAL_Driver/Src/stm32f4xx_hal_rcc.c ****       if((RCC_OscInitStruct->PLL.PLLState) == RCC_PLL_ON)
 648              		.loc 1 467 7 is_stmt 1 view .LVU216
 649              		.loc 1 467 9 is_stmt 0 view .LVU217
 650 02d8 022B     		cmp	r3, #2
 651 02da 17D0     		beq	.L90
 468:Drivers/STM32F4xx_HAL_Driver/Src/stm32f4xx_hal_rcc.c ****       {
 469:Drivers/STM32F4xx_HAL_Driver/Src/stm32f4xx_hal_rcc.c ****         /* Check the parameters */
 470:Drivers/STM32F4xx_HAL_Driver/Src/stm32f4xx_hal_rcc.c ****         assert_param(IS_RCC_PLLSOURCE(RCC_OscInitStruct->PLL.PLLSource));
 471:Drivers/STM32F4xx_HAL_Driver/Src/stm32f4xx_hal_rcc.c ****         assert_param(IS_RCC_PLLM_VALUE(RCC_OscInitStruct->PLL.PLLM));
 472:Drivers/STM32F4xx_HAL_Driver/Src/stm32f4xx_hal_rcc.c ****         assert_param(IS_RCC_PLLN_VALUE(RCC_OscInitStruct->PLL.PLLN));
 473:Drivers/STM32F4xx_HAL_Driver/Src/stm32f4xx_hal_rcc.c ****         assert_param(IS_RCC_PLLP_VALUE(RCC_OscInitStruct->PLL.PLLP));
 474:Drivers/STM32F4xx_HAL_Driver/Src/stm32f4xx_hal_rcc.c ****         assert_param(IS_RCC_PLLQ_VALUE(RCC_OscInitStruct->PLL.PLLQ));
 475:Drivers/STM32F4xx_HAL_Driver/Src/stm32f4xx_hal_rcc.c **** 
 476:Drivers/STM32F4xx_HAL_Driver/Src/stm32f4xx_hal_rcc.c ****         /* Disable the main PLL. */
 477:Drivers/STM32F4xx_HAL_Driver/Src/stm32f4xx_hal_rcc.c ****         __HAL_RCC_PLL_DISABLE();
 478:Drivers/STM32F4xx_HAL_Driver/Src/stm32f4xx_hal_rcc.c **** 
 479:Drivers/STM32F4xx_HAL_Driver/Src/stm32f4xx_hal_rcc.c ****         /* Get Start Tick */
 480:Drivers/STM32F4xx_HAL_Driver/Src/stm32f4xx_hal_rcc.c ****         tickstart = HAL_GetTick();
 481:Drivers/STM32F4xx_HAL_Driver/Src/stm32f4xx_hal_rcc.c **** 
 482:Drivers/STM32F4xx_HAL_Driver/Src/stm32f4xx_hal_rcc.c ****         /* Wait till PLL is ready */
 483:Drivers/STM32F4xx_HAL_Driver/Src/stm32f4xx_hal_rcc.c ****         while(__HAL_RCC_GET_FLAG(RCC_FLAG_PLLRDY) != RESET)
 484:Drivers/STM32F4xx_HAL_Driver/Src/stm32f4xx_hal_rcc.c ****         {
 485:Drivers/STM32F4xx_HAL_Driver/Src/stm32f4xx_hal_rcc.c ****           if((HAL_GetTick() - tickstart ) > PLL_TIMEOUT_VALUE)
 486:Drivers/STM32F4xx_HAL_Driver/Src/stm32f4xx_hal_rcc.c ****           {
 487:Drivers/STM32F4xx_HAL_Driver/Src/stm32f4xx_hal_rcc.c ****             return HAL_TIMEOUT;
ARM GAS  /tmp/cc4ImuJe.s 			page 22


 488:Drivers/STM32F4xx_HAL_Driver/Src/stm32f4xx_hal_rcc.c ****           }
 489:Drivers/STM32F4xx_HAL_Driver/Src/stm32f4xx_hal_rcc.c ****         }
 490:Drivers/STM32F4xx_HAL_Driver/Src/stm32f4xx_hal_rcc.c **** 
 491:Drivers/STM32F4xx_HAL_Driver/Src/stm32f4xx_hal_rcc.c ****         /* Configure the main PLL clock source, multiplication and division factors. */
 492:Drivers/STM32F4xx_HAL_Driver/Src/stm32f4xx_hal_rcc.c ****         WRITE_REG(RCC->PLLCFGR, (RCC_OscInitStruct->PLL.PLLSource                                  
 493:Drivers/STM32F4xx_HAL_Driver/Src/stm32f4xx_hal_rcc.c ****                                  RCC_OscInitStruct->PLL.PLLM                                       
 494:Drivers/STM32F4xx_HAL_Driver/Src/stm32f4xx_hal_rcc.c ****                                  (RCC_OscInitStruct->PLL.PLLN << RCC_PLLCFGR_PLLN_Pos)             
 495:Drivers/STM32F4xx_HAL_Driver/Src/stm32f4xx_hal_rcc.c ****                                  (((RCC_OscInitStruct->PLL.PLLP >> 1U) - 1U) << RCC_PLLCFGR_PLLP_Po
 496:Drivers/STM32F4xx_HAL_Driver/Src/stm32f4xx_hal_rcc.c ****                                  (RCC_OscInitStruct->PLL.PLLQ << RCC_PLLCFGR_PLLQ_Pos)));
 497:Drivers/STM32F4xx_HAL_Driver/Src/stm32f4xx_hal_rcc.c ****         /* Enable the main PLL. */
 498:Drivers/STM32F4xx_HAL_Driver/Src/stm32f4xx_hal_rcc.c ****         __HAL_RCC_PLL_ENABLE();
 499:Drivers/STM32F4xx_HAL_Driver/Src/stm32f4xx_hal_rcc.c **** 
 500:Drivers/STM32F4xx_HAL_Driver/Src/stm32f4xx_hal_rcc.c ****         /* Get Start Tick */
 501:Drivers/STM32F4xx_HAL_Driver/Src/stm32f4xx_hal_rcc.c ****         tickstart = HAL_GetTick();
 502:Drivers/STM32F4xx_HAL_Driver/Src/stm32f4xx_hal_rcc.c **** 
 503:Drivers/STM32F4xx_HAL_Driver/Src/stm32f4xx_hal_rcc.c ****         /* Wait till PLL is ready */
 504:Drivers/STM32F4xx_HAL_Driver/Src/stm32f4xx_hal_rcc.c ****         while(__HAL_RCC_GET_FLAG(RCC_FLAG_PLLRDY) == RESET)
 505:Drivers/STM32F4xx_HAL_Driver/Src/stm32f4xx_hal_rcc.c ****         {
 506:Drivers/STM32F4xx_HAL_Driver/Src/stm32f4xx_hal_rcc.c ****           if((HAL_GetTick() - tickstart ) > PLL_TIMEOUT_VALUE)
 507:Drivers/STM32F4xx_HAL_Driver/Src/stm32f4xx_hal_rcc.c ****           {
 508:Drivers/STM32F4xx_HAL_Driver/Src/stm32f4xx_hal_rcc.c ****             return HAL_TIMEOUT;
 509:Drivers/STM32F4xx_HAL_Driver/Src/stm32f4xx_hal_rcc.c ****           }
 510:Drivers/STM32F4xx_HAL_Driver/Src/stm32f4xx_hal_rcc.c ****         }
 511:Drivers/STM32F4xx_HAL_Driver/Src/stm32f4xx_hal_rcc.c ****       }
 512:Drivers/STM32F4xx_HAL_Driver/Src/stm32f4xx_hal_rcc.c ****       else
 513:Drivers/STM32F4xx_HAL_Driver/Src/stm32f4xx_hal_rcc.c ****       {
 514:Drivers/STM32F4xx_HAL_Driver/Src/stm32f4xx_hal_rcc.c ****         /* Disable the main PLL. */
 515:Drivers/STM32F4xx_HAL_Driver/Src/stm32f4xx_hal_rcc.c ****         __HAL_RCC_PLL_DISABLE();
 652              		.loc 1 515 9 is_stmt 1 view .LVU218
 653 02dc 494B     		ldr	r3, .L96+4
 654 02de 0022     		movs	r2, #0
 655 02e0 1A66     		str	r2, [r3, #96]
 516:Drivers/STM32F4xx_HAL_Driver/Src/stm32f4xx_hal_rcc.c **** 
 517:Drivers/STM32F4xx_HAL_Driver/Src/stm32f4xx_hal_rcc.c ****         /* Get Start Tick */
 518:Drivers/STM32F4xx_HAL_Driver/Src/stm32f4xx_hal_rcc.c ****         tickstart = HAL_GetTick();
 656              		.loc 1 518 9 view .LVU219
 657              		.loc 1 518 21 is_stmt 0 view .LVU220
 658 02e2 FFF7FEFF 		bl	HAL_GetTick
 659              	.LVL42:
 660 02e6 0446     		mov	r4, r0
 661              	.LVL43:
 519:Drivers/STM32F4xx_HAL_Driver/Src/stm32f4xx_hal_rcc.c **** 
 520:Drivers/STM32F4xx_HAL_Driver/Src/stm32f4xx_hal_rcc.c ****         /* Wait till PLL is ready */
 521:Drivers/STM32F4xx_HAL_Driver/Src/stm32f4xx_hal_rcc.c ****         while(__HAL_RCC_GET_FLAG(RCC_FLAG_PLLRDY) != RESET)
 662              		.loc 1 521 9 is_stmt 1 view .LVU221
 663              	.L50:
 664              		.loc 1 521 51 view .LVU222
 665              		.loc 1 521 15 is_stmt 0 view .LVU223
 666 02e8 454B     		ldr	r3, .L96
 667 02ea 1B68     		ldr	r3, [r3]
 668              		.loc 1 521 51 view .LVU224
 669 02ec 13F0007F 		tst	r3, #33554432
 670 02f0 42D0     		beq	.L91
 522:Drivers/STM32F4xx_HAL_Driver/Src/stm32f4xx_hal_rcc.c ****         {
 523:Drivers/STM32F4xx_HAL_Driver/Src/stm32f4xx_hal_rcc.c ****           if((HAL_GetTick() - tickstart ) > PLL_TIMEOUT_VALUE)
 671              		.loc 1 523 11 is_stmt 1 view .LVU225
 672              		.loc 1 523 15 is_stmt 0 view .LVU226
ARM GAS  /tmp/cc4ImuJe.s 			page 23


 673 02f2 FFF7FEFF 		bl	HAL_GetTick
 674              	.LVL44:
 675              		.loc 1 523 29 discriminator 1 view .LVU227
 676 02f6 001B     		subs	r0, r0, r4
 677              		.loc 1 523 13 discriminator 1 view .LVU228
 678 02f8 0228     		cmp	r0, #2
 679 02fa F5D9     		bls	.L50
 524:Drivers/STM32F4xx_HAL_Driver/Src/stm32f4xx_hal_rcc.c ****           {
 525:Drivers/STM32F4xx_HAL_Driver/Src/stm32f4xx_hal_rcc.c ****             return HAL_TIMEOUT;
 680              		.loc 1 525 20 view .LVU229
 681 02fc 0320     		movs	r0, #3
 682 02fe 6FE0     		b	.L3
 683              	.LVL45:
 684              	.L89:
 685              	.LBB4:
 456:Drivers/STM32F4xx_HAL_Driver/Src/stm32f4xx_hal_rcc.c ****     }
 686              		.loc 1 456 7 is_stmt 1 view .LVU230
 687 0300 3F4A     		ldr	r2, .L96
 688 0302 136C     		ldr	r3, [r2, #64]
 689 0304 23F08053 		bic	r3, r3, #268435456
 690 0308 1364     		str	r3, [r2, #64]
 691 030a DBE7     		b	.L30
 692              	.LVL46:
 693              	.L90:
 456:Drivers/STM32F4xx_HAL_Driver/Src/stm32f4xx_hal_rcc.c ****     }
 694              		.loc 1 456 7 is_stmt 0 view .LVU231
 695              	.LBE4:
 470:Drivers/STM32F4xx_HAL_Driver/Src/stm32f4xx_hal_rcc.c ****         assert_param(IS_RCC_PLLM_VALUE(RCC_OscInitStruct->PLL.PLLM));
 696              		.loc 1 470 9 is_stmt 1 view .LVU232
 471:Drivers/STM32F4xx_HAL_Driver/Src/stm32f4xx_hal_rcc.c ****         assert_param(IS_RCC_PLLN_VALUE(RCC_OscInitStruct->PLL.PLLN));
 697              		.loc 1 471 9 view .LVU233
 472:Drivers/STM32F4xx_HAL_Driver/Src/stm32f4xx_hal_rcc.c ****         assert_param(IS_RCC_PLLP_VALUE(RCC_OscInitStruct->PLL.PLLP));
 698              		.loc 1 472 9 view .LVU234
 473:Drivers/STM32F4xx_HAL_Driver/Src/stm32f4xx_hal_rcc.c ****         assert_param(IS_RCC_PLLQ_VALUE(RCC_OscInitStruct->PLL.PLLQ));
 699              		.loc 1 473 9 view .LVU235
 474:Drivers/STM32F4xx_HAL_Driver/Src/stm32f4xx_hal_rcc.c **** 
 700              		.loc 1 474 9 view .LVU236
 477:Drivers/STM32F4xx_HAL_Driver/Src/stm32f4xx_hal_rcc.c **** 
 701              		.loc 1 477 9 view .LVU237
 702 030c 3D4B     		ldr	r3, .L96+4
 703 030e 0022     		movs	r2, #0
 704 0310 1A66     		str	r2, [r3, #96]
 480:Drivers/STM32F4xx_HAL_Driver/Src/stm32f4xx_hal_rcc.c **** 
 705              		.loc 1 480 9 view .LVU238
 480:Drivers/STM32F4xx_HAL_Driver/Src/stm32f4xx_hal_rcc.c **** 
 706              		.loc 1 480 21 is_stmt 0 view .LVU239
 707 0312 FFF7FEFF 		bl	HAL_GetTick
 708              	.LVL47:
 709 0316 0546     		mov	r5, r0
 710              	.LVL48:
 483:Drivers/STM32F4xx_HAL_Driver/Src/stm32f4xx_hal_rcc.c ****         {
 711              		.loc 1 483 9 is_stmt 1 view .LVU240
 712              	.L46:
 483:Drivers/STM32F4xx_HAL_Driver/Src/stm32f4xx_hal_rcc.c ****         {
 713              		.loc 1 483 51 view .LVU241
 483:Drivers/STM32F4xx_HAL_Driver/Src/stm32f4xx_hal_rcc.c ****         {
 714              		.loc 1 483 15 is_stmt 0 view .LVU242
ARM GAS  /tmp/cc4ImuJe.s 			page 24


 715 0318 394B     		ldr	r3, .L96
 716 031a 1B68     		ldr	r3, [r3]
 483:Drivers/STM32F4xx_HAL_Driver/Src/stm32f4xx_hal_rcc.c ****         {
 717              		.loc 1 483 51 view .LVU243
 718 031c 13F0007F 		tst	r3, #33554432
 719 0320 06D0     		beq	.L92
 485:Drivers/STM32F4xx_HAL_Driver/Src/stm32f4xx_hal_rcc.c ****           {
 720              		.loc 1 485 11 is_stmt 1 view .LVU244
 485:Drivers/STM32F4xx_HAL_Driver/Src/stm32f4xx_hal_rcc.c ****           {
 721              		.loc 1 485 15 is_stmt 0 view .LVU245
 722 0322 FFF7FEFF 		bl	HAL_GetTick
 723              	.LVL49:
 485:Drivers/STM32F4xx_HAL_Driver/Src/stm32f4xx_hal_rcc.c ****           {
 724              		.loc 1 485 29 discriminator 1 view .LVU246
 725 0326 401B     		subs	r0, r0, r5
 485:Drivers/STM32F4xx_HAL_Driver/Src/stm32f4xx_hal_rcc.c ****           {
 726              		.loc 1 485 13 discriminator 1 view .LVU247
 727 0328 0228     		cmp	r0, #2
 728 032a F5D9     		bls	.L46
 487:Drivers/STM32F4xx_HAL_Driver/Src/stm32f4xx_hal_rcc.c ****           }
 729              		.loc 1 487 20 view .LVU248
 730 032c 0320     		movs	r0, #3
 731 032e 57E0     		b	.L3
 732              	.L92:
 492:Drivers/STM32F4xx_HAL_Driver/Src/stm32f4xx_hal_rcc.c ****                                  RCC_OscInitStruct->PLL.PLLM                                       
 733              		.loc 1 492 9 is_stmt 1 view .LVU249
 734 0330 E369     		ldr	r3, [r4, #28]
 735 0332 226A     		ldr	r2, [r4, #32]
 736 0334 1343     		orrs	r3, r3, r2
 737 0336 626A     		ldr	r2, [r4, #36]
 738 0338 43EA8213 		orr	r3, r3, r2, lsl #6
 739 033c A26A     		ldr	r2, [r4, #40]
 740 033e 5208     		lsrs	r2, r2, #1
 741 0340 013A     		subs	r2, r2, #1
 742 0342 43EA0243 		orr	r3, r3, r2, lsl #16
 743 0346 E26A     		ldr	r2, [r4, #44]
 744 0348 43EA0263 		orr	r3, r3, r2, lsl #24
 745 034c 2C4A     		ldr	r2, .L96
 746 034e 5360     		str	r3, [r2, #4]
 498:Drivers/STM32F4xx_HAL_Driver/Src/stm32f4xx_hal_rcc.c **** 
 747              		.loc 1 498 9 view .LVU250
 748 0350 2C4B     		ldr	r3, .L96+4
 749 0352 0122     		movs	r2, #1
 750 0354 1A66     		str	r2, [r3, #96]
 501:Drivers/STM32F4xx_HAL_Driver/Src/stm32f4xx_hal_rcc.c **** 
 751              		.loc 1 501 9 view .LVU251
 501:Drivers/STM32F4xx_HAL_Driver/Src/stm32f4xx_hal_rcc.c **** 
 752              		.loc 1 501 21 is_stmt 0 view .LVU252
 753 0356 FFF7FEFF 		bl	HAL_GetTick
 754              	.LVL50:
 755 035a 0446     		mov	r4, r0
 756              	.LVL51:
 504:Drivers/STM32F4xx_HAL_Driver/Src/stm32f4xx_hal_rcc.c ****         {
 757              		.loc 1 504 9 is_stmt 1 view .LVU253
 758              	.L48:
 504:Drivers/STM32F4xx_HAL_Driver/Src/stm32f4xx_hal_rcc.c ****         {
 759              		.loc 1 504 51 view .LVU254
ARM GAS  /tmp/cc4ImuJe.s 			page 25


 504:Drivers/STM32F4xx_HAL_Driver/Src/stm32f4xx_hal_rcc.c ****         {
 760              		.loc 1 504 15 is_stmt 0 view .LVU255
 761 035c 284B     		ldr	r3, .L96
 762 035e 1B68     		ldr	r3, [r3]
 504:Drivers/STM32F4xx_HAL_Driver/Src/stm32f4xx_hal_rcc.c ****         {
 763              		.loc 1 504 51 view .LVU256
 764 0360 13F0007F 		tst	r3, #33554432
 765 0364 06D1     		bne	.L93
 506:Drivers/STM32F4xx_HAL_Driver/Src/stm32f4xx_hal_rcc.c ****           {
 766              		.loc 1 506 11 is_stmt 1 view .LVU257
 506:Drivers/STM32F4xx_HAL_Driver/Src/stm32f4xx_hal_rcc.c ****           {
 767              		.loc 1 506 15 is_stmt 0 view .LVU258
 768 0366 FFF7FEFF 		bl	HAL_GetTick
 769              	.LVL52:
 506:Drivers/STM32F4xx_HAL_Driver/Src/stm32f4xx_hal_rcc.c ****           {
 770              		.loc 1 506 29 discriminator 1 view .LVU259
 771 036a 001B     		subs	r0, r0, r4
 506:Drivers/STM32F4xx_HAL_Driver/Src/stm32f4xx_hal_rcc.c ****           {
 772              		.loc 1 506 13 discriminator 1 view .LVU260
 773 036c 0228     		cmp	r0, #2
 774 036e F5D9     		bls	.L48
 508:Drivers/STM32F4xx_HAL_Driver/Src/stm32f4xx_hal_rcc.c ****           }
 775              		.loc 1 508 20 view .LVU261
 776 0370 0320     		movs	r0, #3
 777 0372 35E0     		b	.L3
 778              	.L93:
 526:Drivers/STM32F4xx_HAL_Driver/Src/stm32f4xx_hal_rcc.c ****           }
 527:Drivers/STM32F4xx_HAL_Driver/Src/stm32f4xx_hal_rcc.c ****         }
 528:Drivers/STM32F4xx_HAL_Driver/Src/stm32f4xx_hal_rcc.c ****       }
 529:Drivers/STM32F4xx_HAL_Driver/Src/stm32f4xx_hal_rcc.c ****     }
 530:Drivers/STM32F4xx_HAL_Driver/Src/stm32f4xx_hal_rcc.c ****     else
 531:Drivers/STM32F4xx_HAL_Driver/Src/stm32f4xx_hal_rcc.c ****     {
 532:Drivers/STM32F4xx_HAL_Driver/Src/stm32f4xx_hal_rcc.c ****       /* Check if there is a request to disable the PLL used as System clock source */
 533:Drivers/STM32F4xx_HAL_Driver/Src/stm32f4xx_hal_rcc.c ****       if((RCC_OscInitStruct->PLL.PLLState) == RCC_PLL_OFF)
 534:Drivers/STM32F4xx_HAL_Driver/Src/stm32f4xx_hal_rcc.c ****       {
 535:Drivers/STM32F4xx_HAL_Driver/Src/stm32f4xx_hal_rcc.c ****         return HAL_ERROR;
 536:Drivers/STM32F4xx_HAL_Driver/Src/stm32f4xx_hal_rcc.c ****       }
 537:Drivers/STM32F4xx_HAL_Driver/Src/stm32f4xx_hal_rcc.c ****       else
 538:Drivers/STM32F4xx_HAL_Driver/Src/stm32f4xx_hal_rcc.c ****       {
 539:Drivers/STM32F4xx_HAL_Driver/Src/stm32f4xx_hal_rcc.c ****         /* Do not return HAL_ERROR if request repeats the current configuration */
 540:Drivers/STM32F4xx_HAL_Driver/Src/stm32f4xx_hal_rcc.c ****         pll_config = RCC->PLLCFGR;
 541:Drivers/STM32F4xx_HAL_Driver/Src/stm32f4xx_hal_rcc.c **** #if defined (RCC_PLLCFGR_PLLR)
 542:Drivers/STM32F4xx_HAL_Driver/Src/stm32f4xx_hal_rcc.c ****         if (((RCC_OscInitStruct->PLL.PLLState) == RCC_PLL_OFF) ||
 543:Drivers/STM32F4xx_HAL_Driver/Src/stm32f4xx_hal_rcc.c ****             (READ_BIT(pll_config, RCC_PLLCFGR_PLLSRC) != RCC_OscInitStruct->PLL.PLLSource) ||
 544:Drivers/STM32F4xx_HAL_Driver/Src/stm32f4xx_hal_rcc.c ****             (READ_BIT(pll_config, RCC_PLLCFGR_PLLM) != (RCC_OscInitStruct->PLL.PLLM) << RCC_PLLCFGR
 545:Drivers/STM32F4xx_HAL_Driver/Src/stm32f4xx_hal_rcc.c ****             (READ_BIT(pll_config, RCC_PLLCFGR_PLLN) != (RCC_OscInitStruct->PLL.PLLN) << RCC_PLLCFGR
 546:Drivers/STM32F4xx_HAL_Driver/Src/stm32f4xx_hal_rcc.c ****             (READ_BIT(pll_config, RCC_PLLCFGR_PLLP) != (((RCC_OscInitStruct->PLL.PLLP >> 1U) - 1U))
 547:Drivers/STM32F4xx_HAL_Driver/Src/stm32f4xx_hal_rcc.c ****             (READ_BIT(pll_config, RCC_PLLCFGR_PLLQ) != (RCC_OscInitStruct->PLL.PLLQ << RCC_PLLCFGR_
 548:Drivers/STM32F4xx_HAL_Driver/Src/stm32f4xx_hal_rcc.c ****             (READ_BIT(pll_config, RCC_PLLCFGR_PLLR) != (RCC_OscInitStruct->PLL.PLLR << RCC_PLLCFGR_
 549:Drivers/STM32F4xx_HAL_Driver/Src/stm32f4xx_hal_rcc.c **** #else
 550:Drivers/STM32F4xx_HAL_Driver/Src/stm32f4xx_hal_rcc.c ****         if (((RCC_OscInitStruct->PLL.PLLState) == RCC_PLL_OFF) ||
 551:Drivers/STM32F4xx_HAL_Driver/Src/stm32f4xx_hal_rcc.c ****             (READ_BIT(pll_config, RCC_PLLCFGR_PLLSRC) != RCC_OscInitStruct->PLL.PLLSource) ||
 552:Drivers/STM32F4xx_HAL_Driver/Src/stm32f4xx_hal_rcc.c ****             (READ_BIT(pll_config, RCC_PLLCFGR_PLLM) != (RCC_OscInitStruct->PLL.PLLM) << RCC_PLLCFGR
 553:Drivers/STM32F4xx_HAL_Driver/Src/stm32f4xx_hal_rcc.c ****             (READ_BIT(pll_config, RCC_PLLCFGR_PLLN) != (RCC_OscInitStruct->PLL.PLLN) << RCC_PLLCFGR
 554:Drivers/STM32F4xx_HAL_Driver/Src/stm32f4xx_hal_rcc.c ****             (READ_BIT(pll_config, RCC_PLLCFGR_PLLP) != (((RCC_OscInitStruct->PLL.PLLP >> 1U) - 1U))
 555:Drivers/STM32F4xx_HAL_Driver/Src/stm32f4xx_hal_rcc.c ****             (READ_BIT(pll_config, RCC_PLLCFGR_PLLQ) != (RCC_OscInitStruct->PLL.PLLQ << RCC_PLLCFGR_
 556:Drivers/STM32F4xx_HAL_Driver/Src/stm32f4xx_hal_rcc.c **** #endif
ARM GAS  /tmp/cc4ImuJe.s 			page 26


 557:Drivers/STM32F4xx_HAL_Driver/Src/stm32f4xx_hal_rcc.c ****         {
 558:Drivers/STM32F4xx_HAL_Driver/Src/stm32f4xx_hal_rcc.c ****           return HAL_ERROR;
 559:Drivers/STM32F4xx_HAL_Driver/Src/stm32f4xx_hal_rcc.c ****         }
 560:Drivers/STM32F4xx_HAL_Driver/Src/stm32f4xx_hal_rcc.c ****       }
 561:Drivers/STM32F4xx_HAL_Driver/Src/stm32f4xx_hal_rcc.c ****     }
 562:Drivers/STM32F4xx_HAL_Driver/Src/stm32f4xx_hal_rcc.c ****   }
 563:Drivers/STM32F4xx_HAL_Driver/Src/stm32f4xx_hal_rcc.c ****   return HAL_OK;
 779              		.loc 1 563 10 view .LVU262
 780 0374 0020     		movs	r0, #0
 781 0376 33E0     		b	.L3
 782              	.L91:
 783              		.loc 1 563 10 view .LVU263
 784 0378 0020     		movs	r0, #0
 785 037a 31E0     		b	.L3
 786              	.LVL53:
 787              	.L44:
 533:Drivers/STM32F4xx_HAL_Driver/Src/stm32f4xx_hal_rcc.c ****       {
 788              		.loc 1 533 7 is_stmt 1 view .LVU264
 533:Drivers/STM32F4xx_HAL_Driver/Src/stm32f4xx_hal_rcc.c ****       {
 789              		.loc 1 533 9 is_stmt 0 view .LVU265
 790 037c 012B     		cmp	r3, #1
 791 037e 31D0     		beq	.L69
 540:Drivers/STM32F4xx_HAL_Driver/Src/stm32f4xx_hal_rcc.c **** #if defined (RCC_PLLCFGR_PLLR)
 792              		.loc 1 540 9 is_stmt 1 view .LVU266
 540:Drivers/STM32F4xx_HAL_Driver/Src/stm32f4xx_hal_rcc.c **** #if defined (RCC_PLLCFGR_PLLR)
 793              		.loc 1 540 20 is_stmt 0 view .LVU267
 794 0380 1F4B     		ldr	r3, .L96
 795 0382 5B68     		ldr	r3, [r3, #4]
 796              	.LVL54:
 542:Drivers/STM32F4xx_HAL_Driver/Src/stm32f4xx_hal_rcc.c ****             (READ_BIT(pll_config, RCC_PLLCFGR_PLLSRC) != RCC_OscInitStruct->PLL.PLLSource) ||
 797              		.loc 1 542 9 is_stmt 1 view .LVU268
 543:Drivers/STM32F4xx_HAL_Driver/Src/stm32f4xx_hal_rcc.c ****             (READ_BIT(pll_config, RCC_PLLCFGR_PLLM) != (RCC_OscInitStruct->PLL.PLLM) << RCC_PLLCFGR
 798              		.loc 1 543 14 is_stmt 0 view .LVU269
 799 0384 03F48001 		and	r1, r3, #4194304
 543:Drivers/STM32F4xx_HAL_Driver/Src/stm32f4xx_hal_rcc.c ****             (READ_BIT(pll_config, RCC_PLLCFGR_PLLM) != (RCC_OscInitStruct->PLL.PLLM) << RCC_PLLCFGR
 800              		.loc 1 543 80 view .LVU270
 801 0388 E269     		ldr	r2, [r4, #28]
 542:Drivers/STM32F4xx_HAL_Driver/Src/stm32f4xx_hal_rcc.c ****             (READ_BIT(pll_config, RCC_PLLCFGR_PLLSRC) != RCC_OscInitStruct->PLL.PLLSource) ||
 802              		.loc 1 542 64 discriminator 1 view .LVU271
 803 038a 9142     		cmp	r1, r2
 804 038c 2CD1     		bne	.L70
 544:Drivers/STM32F4xx_HAL_Driver/Src/stm32f4xx_hal_rcc.c ****             (READ_BIT(pll_config, RCC_PLLCFGR_PLLN) != (RCC_OscInitStruct->PLL.PLLN) << RCC_PLLCFGR
 805              		.loc 1 544 14 view .LVU272
 806 038e 03F03F02 		and	r2, r3, #63
 544:Drivers/STM32F4xx_HAL_Driver/Src/stm32f4xx_hal_rcc.c ****             (READ_BIT(pll_config, RCC_PLLCFGR_PLLN) != (RCC_OscInitStruct->PLL.PLLN) << RCC_PLLCFGR
 807              		.loc 1 544 86 view .LVU273
 808 0392 216A     		ldr	r1, [r4, #32]
 543:Drivers/STM32F4xx_HAL_Driver/Src/stm32f4xx_hal_rcc.c ****             (READ_BIT(pll_config, RCC_PLLCFGR_PLLM) != (RCC_OscInitStruct->PLL.PLLM) << RCC_PLLCFGR
 809              		.loc 1 543 92 view .LVU274
 810 0394 8A42     		cmp	r2, r1
 811 0396 29D1     		bne	.L71
 545:Drivers/STM32F4xx_HAL_Driver/Src/stm32f4xx_hal_rcc.c ****             (READ_BIT(pll_config, RCC_PLLCFGR_PLLP) != (((RCC_OscInitStruct->PLL.PLLP >> 1U) - 1U))
 812              		.loc 1 545 79 view .LVU275
 813 0398 616A     		ldr	r1, [r4, #36]
 544:Drivers/STM32F4xx_HAL_Driver/Src/stm32f4xx_hal_rcc.c ****             (READ_BIT(pll_config, RCC_PLLCFGR_PLLN) != (RCC_OscInitStruct->PLL.PLLN) << RCC_PLLCFGR
 814              		.loc 1 544 111 view .LVU276
 815 039a 47F6C072 		movw	r2, #32704
ARM GAS  /tmp/cc4ImuJe.s 			page 27


 816 039e 1A40     		ands	r2, r2, r3
 817 03a0 B2EB811F 		cmp	r2, r1, lsl #6
 818 03a4 24D1     		bne	.L72
 546:Drivers/STM32F4xx_HAL_Driver/Src/stm32f4xx_hal_rcc.c ****             (READ_BIT(pll_config, RCC_PLLCFGR_PLLQ) != (RCC_OscInitStruct->PLL.PLLQ << RCC_PLLCFGR_
 819              		.loc 1 546 14 view .LVU277
 820 03a6 03F44031 		and	r1, r3, #196608
 546:Drivers/STM32F4xx_HAL_Driver/Src/stm32f4xx_hal_rcc.c ****             (READ_BIT(pll_config, RCC_PLLCFGR_PLLQ) != (RCC_OscInitStruct->PLL.PLLQ << RCC_PLLCFGR_
 821              		.loc 1 546 81 view .LVU278
 822 03aa A26A     		ldr	r2, [r4, #40]
 546:Drivers/STM32F4xx_HAL_Driver/Src/stm32f4xx_hal_rcc.c ****             (READ_BIT(pll_config, RCC_PLLCFGR_PLLQ) != (RCC_OscInitStruct->PLL.PLLQ << RCC_PLLCFGR_
 823              		.loc 1 546 87 view .LVU279
 824 03ac 5208     		lsrs	r2, r2, #1
 546:Drivers/STM32F4xx_HAL_Driver/Src/stm32f4xx_hal_rcc.c ****             (READ_BIT(pll_config, RCC_PLLCFGR_PLLQ) != (RCC_OscInitStruct->PLL.PLLQ << RCC_PLLCFGR_
 825              		.loc 1 546 94 view .LVU280
 826 03ae 013A     		subs	r2, r2, #1
 545:Drivers/STM32F4xx_HAL_Driver/Src/stm32f4xx_hal_rcc.c ****             (READ_BIT(pll_config, RCC_PLLCFGR_PLLP) != (((RCC_OscInitStruct->PLL.PLLP >> 1U) - 1U))
 827              		.loc 1 545 111 view .LVU281
 828 03b0 B1EB024F 		cmp	r1, r2, lsl #16
 829 03b4 1ED1     		bne	.L73
 547:Drivers/STM32F4xx_HAL_Driver/Src/stm32f4xx_hal_rcc.c ****             (READ_BIT(pll_config, RCC_PLLCFGR_PLLR) != (RCC_OscInitStruct->PLL.PLLR << RCC_PLLCFGR_
 830              		.loc 1 547 14 view .LVU282
 831 03b6 03F07062 		and	r2, r3, #251658240
 547:Drivers/STM32F4xx_HAL_Driver/Src/stm32f4xx_hal_rcc.c ****             (READ_BIT(pll_config, RCC_PLLCFGR_PLLR) != (RCC_OscInitStruct->PLL.PLLR << RCC_PLLCFGR_
 832              		.loc 1 547 79 view .LVU283
 833 03ba E16A     		ldr	r1, [r4, #44]
 546:Drivers/STM32F4xx_HAL_Driver/Src/stm32f4xx_hal_rcc.c ****             (READ_BIT(pll_config, RCC_PLLCFGR_PLLQ) != (RCC_OscInitStruct->PLL.PLLQ << RCC_PLLCFGR_
 834              		.loc 1 546 126 view .LVU284
 835 03bc B2EB016F 		cmp	r2, r1, lsl #24
 836 03c0 1AD1     		bne	.L74
 548:Drivers/STM32F4xx_HAL_Driver/Src/stm32f4xx_hal_rcc.c **** #else
 837              		.loc 1 548 14 view .LVU285
 838 03c2 03F0E043 		and	r3, r3, #1879048192
 839              	.LVL55:
 548:Drivers/STM32F4xx_HAL_Driver/Src/stm32f4xx_hal_rcc.c **** #else
 840              		.loc 1 548 79 view .LVU286
 841 03c6 226B     		ldr	r2, [r4, #48]
 547:Drivers/STM32F4xx_HAL_Driver/Src/stm32f4xx_hal_rcc.c ****             (READ_BIT(pll_config, RCC_PLLCFGR_PLLR) != (RCC_OscInitStruct->PLL.PLLR << RCC_PLLCFGR_
 842              		.loc 1 547 111 view .LVU287
 843 03c8 B3EB027F 		cmp	r3, r2, lsl #28
 844 03cc 16D1     		bne	.L75
 845              		.loc 1 563 10 view .LVU288
 846 03ce 0020     		movs	r0, #0
 847 03d0 06E0     		b	.L3
 848              	.LVL56:
 849              	.L52:
 850              		.cfi_def_cfa_offset 0
 851              		.cfi_restore 4
 852              		.cfi_restore 5
 853              		.cfi_restore 6
 854              		.cfi_restore 14
 226:Drivers/STM32F4xx_HAL_Driver/Src/stm32f4xx_hal_rcc.c ****   }
 855              		.loc 1 226 12 view .LVU289
 856 03d2 0120     		movs	r0, #1
 857              	.LVL57:
 564:Drivers/STM32F4xx_HAL_Driver/Src/stm32f4xx_hal_rcc.c **** }
 858              		.loc 1 564 1 view .LVU290
 859 03d4 7047     		bx	lr
ARM GAS  /tmp/cc4ImuJe.s 			page 28


 860              	.LVL58:
 861              	.L83:
 862              		.cfi_def_cfa_offset 24
 863              		.cfi_offset 4, -16
 864              		.cfi_offset 5, -12
 865              		.cfi_offset 6, -8
 866              		.cfi_offset 14, -4
 242:Drivers/STM32F4xx_HAL_Driver/Src/stm32f4xx_hal_rcc.c ****       }
 867              		.loc 1 242 16 view .LVU291
 868 03d6 0120     		movs	r0, #1
 869              	.LVL59:
 242:Drivers/STM32F4xx_HAL_Driver/Src/stm32f4xx_hal_rcc.c ****       }
 870              		.loc 1 242 16 view .LVU292
 871 03d8 02E0     		b	.L3
 872              	.L56:
 295:Drivers/STM32F4xx_HAL_Driver/Src/stm32f4xx_hal_rcc.c ****       }
 873              		.loc 1 295 16 view .LVU293
 874 03da 0120     		movs	r0, #1
 875 03dc 00E0     		b	.L3
 876              	.L65:
 563:Drivers/STM32F4xx_HAL_Driver/Src/stm32f4xx_hal_rcc.c **** }
 877              		.loc 1 563 10 view .LVU294
 878 03de 0020     		movs	r0, #0
 879              	.LVL60:
 880              	.L3:
 881              		.loc 1 564 1 view .LVU295
 882 03e0 02B0     		add	sp, sp, #8
 883              		.cfi_remember_state
 884              		.cfi_def_cfa_offset 16
 885              		@ sp needed
 886 03e2 70BD     		pop	{r4, r5, r6, pc}
 887              	.LVL61:
 888              	.L69:
 889              		.cfi_restore_state
 535:Drivers/STM32F4xx_HAL_Driver/Src/stm32f4xx_hal_rcc.c ****       }
 890              		.loc 1 535 16 view .LVU296
 891 03e4 0120     		movs	r0, #1
 892 03e6 FBE7     		b	.L3
 893              	.LVL62:
 894              	.L70:
 558:Drivers/STM32F4xx_HAL_Driver/Src/stm32f4xx_hal_rcc.c ****         }
 895              		.loc 1 558 18 view .LVU297
 896 03e8 0120     		movs	r0, #1
 897 03ea F9E7     		b	.L3
 898              	.L71:
 899 03ec 0120     		movs	r0, #1
 900 03ee F7E7     		b	.L3
 901              	.L72:
 902 03f0 0120     		movs	r0, #1
 903 03f2 F5E7     		b	.L3
 904              	.L73:
 905 03f4 0120     		movs	r0, #1
 906 03f6 F3E7     		b	.L3
 907              	.L74:
 908 03f8 0120     		movs	r0, #1
 909 03fa F1E7     		b	.L3
 910              	.LVL63:
ARM GAS  /tmp/cc4ImuJe.s 			page 29


 911              	.L75:
 558:Drivers/STM32F4xx_HAL_Driver/Src/stm32f4xx_hal_rcc.c ****         }
 912              		.loc 1 558 18 view .LVU298
 913 03fc 0120     		movs	r0, #1
 914 03fe EFE7     		b	.L3
 915              	.L97:
 916              		.align	2
 917              	.L96:
 918 0400 00380240 		.word	1073887232
 919 0404 00004742 		.word	1111949312
 920              		.cfi_endproc
 921              	.LFE131:
 923              		.section	.text.HAL_RCC_MCOConfig,"ax",%progbits
 924              		.align	1
 925              		.global	HAL_RCC_MCOConfig
 926              		.syntax unified
 927              		.thumb
 928              		.thumb_func
 930              	HAL_RCC_MCOConfig:
 931              	.LVL64:
 932              	.LFB133:
 565:Drivers/STM32F4xx_HAL_Driver/Src/stm32f4xx_hal_rcc.c **** 
 566:Drivers/STM32F4xx_HAL_Driver/Src/stm32f4xx_hal_rcc.c **** /**
 567:Drivers/STM32F4xx_HAL_Driver/Src/stm32f4xx_hal_rcc.c ****   * @brief  Initializes the CPU, AHB and APB busses clocks according to the specified
 568:Drivers/STM32F4xx_HAL_Driver/Src/stm32f4xx_hal_rcc.c ****   *         parameters in the RCC_ClkInitStruct.
 569:Drivers/STM32F4xx_HAL_Driver/Src/stm32f4xx_hal_rcc.c ****   * @param  RCC_ClkInitStruct pointer to an RCC_OscInitTypeDef structure that
 570:Drivers/STM32F4xx_HAL_Driver/Src/stm32f4xx_hal_rcc.c ****   *         contains the configuration information for the RCC peripheral.
 571:Drivers/STM32F4xx_HAL_Driver/Src/stm32f4xx_hal_rcc.c ****   * @param  FLatency FLASH Latency, this parameter depend on device selected
 572:Drivers/STM32F4xx_HAL_Driver/Src/stm32f4xx_hal_rcc.c ****   *
 573:Drivers/STM32F4xx_HAL_Driver/Src/stm32f4xx_hal_rcc.c ****   * @note   The SystemCoreClock CMSIS variable is used to store System Clock Frequency
 574:Drivers/STM32F4xx_HAL_Driver/Src/stm32f4xx_hal_rcc.c ****   *         and updated by HAL_RCC_GetHCLKFreq() function called within this function
 575:Drivers/STM32F4xx_HAL_Driver/Src/stm32f4xx_hal_rcc.c ****   *
 576:Drivers/STM32F4xx_HAL_Driver/Src/stm32f4xx_hal_rcc.c ****   * @note   The HSI is used (enabled by hardware) as system clock source after
 577:Drivers/STM32F4xx_HAL_Driver/Src/stm32f4xx_hal_rcc.c ****   *         startup from Reset, wake-up from STOP and STANDBY mode, or in case
 578:Drivers/STM32F4xx_HAL_Driver/Src/stm32f4xx_hal_rcc.c ****   *         of failure of the HSE used directly or indirectly as system clock
 579:Drivers/STM32F4xx_HAL_Driver/Src/stm32f4xx_hal_rcc.c ****   *         (if the Clock Security System CSS is enabled).
 580:Drivers/STM32F4xx_HAL_Driver/Src/stm32f4xx_hal_rcc.c ****   *
 581:Drivers/STM32F4xx_HAL_Driver/Src/stm32f4xx_hal_rcc.c ****   * @note   A switch from one clock source to another occurs only if the target
 582:Drivers/STM32F4xx_HAL_Driver/Src/stm32f4xx_hal_rcc.c ****   *         clock source is ready (clock stable after startup delay or PLL locked).
 583:Drivers/STM32F4xx_HAL_Driver/Src/stm32f4xx_hal_rcc.c ****   *         If a clock source which is not yet ready is selected, the switch will
 584:Drivers/STM32F4xx_HAL_Driver/Src/stm32f4xx_hal_rcc.c ****   *         occur when the clock source will be ready.
 585:Drivers/STM32F4xx_HAL_Driver/Src/stm32f4xx_hal_rcc.c ****   *
 586:Drivers/STM32F4xx_HAL_Driver/Src/stm32f4xx_hal_rcc.c ****   * @note   Depending on the device voltage range, the software has to set correctly
 587:Drivers/STM32F4xx_HAL_Driver/Src/stm32f4xx_hal_rcc.c ****   *         HPRE[3:0] bits to ensure that HCLK not exceed the maximum allowed frequency
 588:Drivers/STM32F4xx_HAL_Driver/Src/stm32f4xx_hal_rcc.c ****   *         (for more details refer to section above "Initialization/de-initialization functions")
 589:Drivers/STM32F4xx_HAL_Driver/Src/stm32f4xx_hal_rcc.c ****   * @retval None
 590:Drivers/STM32F4xx_HAL_Driver/Src/stm32f4xx_hal_rcc.c ****   */
 591:Drivers/STM32F4xx_HAL_Driver/Src/stm32f4xx_hal_rcc.c **** HAL_StatusTypeDef HAL_RCC_ClockConfig(RCC_ClkInitTypeDef  *RCC_ClkInitStruct, uint32_t FLatency)
 592:Drivers/STM32F4xx_HAL_Driver/Src/stm32f4xx_hal_rcc.c **** {
 593:Drivers/STM32F4xx_HAL_Driver/Src/stm32f4xx_hal_rcc.c ****   uint32_t tickstart;
 594:Drivers/STM32F4xx_HAL_Driver/Src/stm32f4xx_hal_rcc.c **** 
 595:Drivers/STM32F4xx_HAL_Driver/Src/stm32f4xx_hal_rcc.c ****   /* Check Null pointer */
 596:Drivers/STM32F4xx_HAL_Driver/Src/stm32f4xx_hal_rcc.c ****   if(RCC_ClkInitStruct == NULL)
 597:Drivers/STM32F4xx_HAL_Driver/Src/stm32f4xx_hal_rcc.c ****   {
 598:Drivers/STM32F4xx_HAL_Driver/Src/stm32f4xx_hal_rcc.c ****     return HAL_ERROR;
 599:Drivers/STM32F4xx_HAL_Driver/Src/stm32f4xx_hal_rcc.c ****   }
 600:Drivers/STM32F4xx_HAL_Driver/Src/stm32f4xx_hal_rcc.c **** 
ARM GAS  /tmp/cc4ImuJe.s 			page 30


 601:Drivers/STM32F4xx_HAL_Driver/Src/stm32f4xx_hal_rcc.c ****   /* Check the parameters */
 602:Drivers/STM32F4xx_HAL_Driver/Src/stm32f4xx_hal_rcc.c ****   assert_param(IS_RCC_CLOCKTYPE(RCC_ClkInitStruct->ClockType));
 603:Drivers/STM32F4xx_HAL_Driver/Src/stm32f4xx_hal_rcc.c ****   assert_param(IS_FLASH_LATENCY(FLatency));
 604:Drivers/STM32F4xx_HAL_Driver/Src/stm32f4xx_hal_rcc.c **** 
 605:Drivers/STM32F4xx_HAL_Driver/Src/stm32f4xx_hal_rcc.c ****   /* To correctly read data from FLASH memory, the number of wait states (LATENCY)
 606:Drivers/STM32F4xx_HAL_Driver/Src/stm32f4xx_hal_rcc.c ****     must be correctly programmed according to the frequency of the CPU clock
 607:Drivers/STM32F4xx_HAL_Driver/Src/stm32f4xx_hal_rcc.c ****     (HCLK) and the supply voltage of the device. */
 608:Drivers/STM32F4xx_HAL_Driver/Src/stm32f4xx_hal_rcc.c **** 
 609:Drivers/STM32F4xx_HAL_Driver/Src/stm32f4xx_hal_rcc.c ****   /* Increasing the number of wait states because of higher CPU frequency */
 610:Drivers/STM32F4xx_HAL_Driver/Src/stm32f4xx_hal_rcc.c ****   if(FLatency > __HAL_FLASH_GET_LATENCY())
 611:Drivers/STM32F4xx_HAL_Driver/Src/stm32f4xx_hal_rcc.c ****   {
 612:Drivers/STM32F4xx_HAL_Driver/Src/stm32f4xx_hal_rcc.c ****     /* Program the new number of wait states to the LATENCY bits in the FLASH_ACR register */
 613:Drivers/STM32F4xx_HAL_Driver/Src/stm32f4xx_hal_rcc.c ****     __HAL_FLASH_SET_LATENCY(FLatency);
 614:Drivers/STM32F4xx_HAL_Driver/Src/stm32f4xx_hal_rcc.c **** 
 615:Drivers/STM32F4xx_HAL_Driver/Src/stm32f4xx_hal_rcc.c ****     /* Check that the new number of wait states is taken into account to access the Flash
 616:Drivers/STM32F4xx_HAL_Driver/Src/stm32f4xx_hal_rcc.c ****     memory by reading the FLASH_ACR register */
 617:Drivers/STM32F4xx_HAL_Driver/Src/stm32f4xx_hal_rcc.c ****     if(__HAL_FLASH_GET_LATENCY() != FLatency)
 618:Drivers/STM32F4xx_HAL_Driver/Src/stm32f4xx_hal_rcc.c ****     {
 619:Drivers/STM32F4xx_HAL_Driver/Src/stm32f4xx_hal_rcc.c ****       return HAL_ERROR;
 620:Drivers/STM32F4xx_HAL_Driver/Src/stm32f4xx_hal_rcc.c ****     }
 621:Drivers/STM32F4xx_HAL_Driver/Src/stm32f4xx_hal_rcc.c ****   }
 622:Drivers/STM32F4xx_HAL_Driver/Src/stm32f4xx_hal_rcc.c **** 
 623:Drivers/STM32F4xx_HAL_Driver/Src/stm32f4xx_hal_rcc.c ****   /*-------------------------- HCLK Configuration --------------------------*/
 624:Drivers/STM32F4xx_HAL_Driver/Src/stm32f4xx_hal_rcc.c ****   if(((RCC_ClkInitStruct->ClockType) & RCC_CLOCKTYPE_HCLK) == RCC_CLOCKTYPE_HCLK)
 625:Drivers/STM32F4xx_HAL_Driver/Src/stm32f4xx_hal_rcc.c ****   {
 626:Drivers/STM32F4xx_HAL_Driver/Src/stm32f4xx_hal_rcc.c ****     /* Set the highest APBx dividers in order to ensure that we do not go through
 627:Drivers/STM32F4xx_HAL_Driver/Src/stm32f4xx_hal_rcc.c ****        a non-spec phase whatever we decrease or increase HCLK. */
 628:Drivers/STM32F4xx_HAL_Driver/Src/stm32f4xx_hal_rcc.c ****     if(((RCC_ClkInitStruct->ClockType) & RCC_CLOCKTYPE_PCLK1) == RCC_CLOCKTYPE_PCLK1)
 629:Drivers/STM32F4xx_HAL_Driver/Src/stm32f4xx_hal_rcc.c ****     {
 630:Drivers/STM32F4xx_HAL_Driver/Src/stm32f4xx_hal_rcc.c ****       MODIFY_REG(RCC->CFGR, RCC_CFGR_PPRE1, RCC_HCLK_DIV16);
 631:Drivers/STM32F4xx_HAL_Driver/Src/stm32f4xx_hal_rcc.c ****     }
 632:Drivers/STM32F4xx_HAL_Driver/Src/stm32f4xx_hal_rcc.c **** 
 633:Drivers/STM32F4xx_HAL_Driver/Src/stm32f4xx_hal_rcc.c ****     if(((RCC_ClkInitStruct->ClockType) & RCC_CLOCKTYPE_PCLK2) == RCC_CLOCKTYPE_PCLK2)
 634:Drivers/STM32F4xx_HAL_Driver/Src/stm32f4xx_hal_rcc.c ****     {
 635:Drivers/STM32F4xx_HAL_Driver/Src/stm32f4xx_hal_rcc.c ****       MODIFY_REG(RCC->CFGR, RCC_CFGR_PPRE2, (RCC_HCLK_DIV16 << 3));
 636:Drivers/STM32F4xx_HAL_Driver/Src/stm32f4xx_hal_rcc.c ****     }
 637:Drivers/STM32F4xx_HAL_Driver/Src/stm32f4xx_hal_rcc.c **** 
 638:Drivers/STM32F4xx_HAL_Driver/Src/stm32f4xx_hal_rcc.c ****     assert_param(IS_RCC_HCLK(RCC_ClkInitStruct->AHBCLKDivider));
 639:Drivers/STM32F4xx_HAL_Driver/Src/stm32f4xx_hal_rcc.c ****     MODIFY_REG(RCC->CFGR, RCC_CFGR_HPRE, RCC_ClkInitStruct->AHBCLKDivider);
 640:Drivers/STM32F4xx_HAL_Driver/Src/stm32f4xx_hal_rcc.c ****   }
 641:Drivers/STM32F4xx_HAL_Driver/Src/stm32f4xx_hal_rcc.c **** 
 642:Drivers/STM32F4xx_HAL_Driver/Src/stm32f4xx_hal_rcc.c ****   /*------------------------- SYSCLK Configuration ---------------------------*/
 643:Drivers/STM32F4xx_HAL_Driver/Src/stm32f4xx_hal_rcc.c ****   if(((RCC_ClkInitStruct->ClockType) & RCC_CLOCKTYPE_SYSCLK) == RCC_CLOCKTYPE_SYSCLK)
 644:Drivers/STM32F4xx_HAL_Driver/Src/stm32f4xx_hal_rcc.c ****   {
 645:Drivers/STM32F4xx_HAL_Driver/Src/stm32f4xx_hal_rcc.c ****     assert_param(IS_RCC_SYSCLKSOURCE(RCC_ClkInitStruct->SYSCLKSource));
 646:Drivers/STM32F4xx_HAL_Driver/Src/stm32f4xx_hal_rcc.c **** 
 647:Drivers/STM32F4xx_HAL_Driver/Src/stm32f4xx_hal_rcc.c ****     /* HSE is selected as System Clock Source */
 648:Drivers/STM32F4xx_HAL_Driver/Src/stm32f4xx_hal_rcc.c ****     if(RCC_ClkInitStruct->SYSCLKSource == RCC_SYSCLKSOURCE_HSE)
 649:Drivers/STM32F4xx_HAL_Driver/Src/stm32f4xx_hal_rcc.c ****     {
 650:Drivers/STM32F4xx_HAL_Driver/Src/stm32f4xx_hal_rcc.c ****       /* Check the HSE ready flag */
 651:Drivers/STM32F4xx_HAL_Driver/Src/stm32f4xx_hal_rcc.c ****       if(__HAL_RCC_GET_FLAG(RCC_FLAG_HSERDY) == RESET)
 652:Drivers/STM32F4xx_HAL_Driver/Src/stm32f4xx_hal_rcc.c ****       {
 653:Drivers/STM32F4xx_HAL_Driver/Src/stm32f4xx_hal_rcc.c ****         return HAL_ERROR;
 654:Drivers/STM32F4xx_HAL_Driver/Src/stm32f4xx_hal_rcc.c ****       }
 655:Drivers/STM32F4xx_HAL_Driver/Src/stm32f4xx_hal_rcc.c ****     }
 656:Drivers/STM32F4xx_HAL_Driver/Src/stm32f4xx_hal_rcc.c ****     /* PLL is selected as System Clock Source */
 657:Drivers/STM32F4xx_HAL_Driver/Src/stm32f4xx_hal_rcc.c ****     else if((RCC_ClkInitStruct->SYSCLKSource == RCC_SYSCLKSOURCE_PLLCLK)   ||
ARM GAS  /tmp/cc4ImuJe.s 			page 31


 658:Drivers/STM32F4xx_HAL_Driver/Src/stm32f4xx_hal_rcc.c ****             (RCC_ClkInitStruct->SYSCLKSource == RCC_SYSCLKSOURCE_PLLRCLK))
 659:Drivers/STM32F4xx_HAL_Driver/Src/stm32f4xx_hal_rcc.c ****     {
 660:Drivers/STM32F4xx_HAL_Driver/Src/stm32f4xx_hal_rcc.c ****       /* Check the PLL ready flag */
 661:Drivers/STM32F4xx_HAL_Driver/Src/stm32f4xx_hal_rcc.c ****       if(__HAL_RCC_GET_FLAG(RCC_FLAG_PLLRDY) == RESET)
 662:Drivers/STM32F4xx_HAL_Driver/Src/stm32f4xx_hal_rcc.c ****       {
 663:Drivers/STM32F4xx_HAL_Driver/Src/stm32f4xx_hal_rcc.c ****         return HAL_ERROR;
 664:Drivers/STM32F4xx_HAL_Driver/Src/stm32f4xx_hal_rcc.c ****       }
 665:Drivers/STM32F4xx_HAL_Driver/Src/stm32f4xx_hal_rcc.c ****     }
 666:Drivers/STM32F4xx_HAL_Driver/Src/stm32f4xx_hal_rcc.c ****     /* HSI is selected as System Clock Source */
 667:Drivers/STM32F4xx_HAL_Driver/Src/stm32f4xx_hal_rcc.c ****     else
 668:Drivers/STM32F4xx_HAL_Driver/Src/stm32f4xx_hal_rcc.c ****     {
 669:Drivers/STM32F4xx_HAL_Driver/Src/stm32f4xx_hal_rcc.c ****       /* Check the HSI ready flag */
 670:Drivers/STM32F4xx_HAL_Driver/Src/stm32f4xx_hal_rcc.c ****       if(__HAL_RCC_GET_FLAG(RCC_FLAG_HSIRDY) == RESET)
 671:Drivers/STM32F4xx_HAL_Driver/Src/stm32f4xx_hal_rcc.c ****       {
 672:Drivers/STM32F4xx_HAL_Driver/Src/stm32f4xx_hal_rcc.c ****         return HAL_ERROR;
 673:Drivers/STM32F4xx_HAL_Driver/Src/stm32f4xx_hal_rcc.c ****       }
 674:Drivers/STM32F4xx_HAL_Driver/Src/stm32f4xx_hal_rcc.c ****     }
 675:Drivers/STM32F4xx_HAL_Driver/Src/stm32f4xx_hal_rcc.c **** 
 676:Drivers/STM32F4xx_HAL_Driver/Src/stm32f4xx_hal_rcc.c ****     __HAL_RCC_SYSCLK_CONFIG(RCC_ClkInitStruct->SYSCLKSource);
 677:Drivers/STM32F4xx_HAL_Driver/Src/stm32f4xx_hal_rcc.c **** 
 678:Drivers/STM32F4xx_HAL_Driver/Src/stm32f4xx_hal_rcc.c ****     /* Get Start Tick */
 679:Drivers/STM32F4xx_HAL_Driver/Src/stm32f4xx_hal_rcc.c ****     tickstart = HAL_GetTick();
 680:Drivers/STM32F4xx_HAL_Driver/Src/stm32f4xx_hal_rcc.c **** 
 681:Drivers/STM32F4xx_HAL_Driver/Src/stm32f4xx_hal_rcc.c ****     while (__HAL_RCC_GET_SYSCLK_SOURCE() != (RCC_ClkInitStruct->SYSCLKSource << RCC_CFGR_SWS_Pos))
 682:Drivers/STM32F4xx_HAL_Driver/Src/stm32f4xx_hal_rcc.c ****     {
 683:Drivers/STM32F4xx_HAL_Driver/Src/stm32f4xx_hal_rcc.c ****       if ((HAL_GetTick() - tickstart) > CLOCKSWITCH_TIMEOUT_VALUE)
 684:Drivers/STM32F4xx_HAL_Driver/Src/stm32f4xx_hal_rcc.c ****       {
 685:Drivers/STM32F4xx_HAL_Driver/Src/stm32f4xx_hal_rcc.c ****         return HAL_TIMEOUT;
 686:Drivers/STM32F4xx_HAL_Driver/Src/stm32f4xx_hal_rcc.c ****       }
 687:Drivers/STM32F4xx_HAL_Driver/Src/stm32f4xx_hal_rcc.c ****     }
 688:Drivers/STM32F4xx_HAL_Driver/Src/stm32f4xx_hal_rcc.c ****   }
 689:Drivers/STM32F4xx_HAL_Driver/Src/stm32f4xx_hal_rcc.c **** 
 690:Drivers/STM32F4xx_HAL_Driver/Src/stm32f4xx_hal_rcc.c ****   /* Decreasing the number of wait states because of lower CPU frequency */
 691:Drivers/STM32F4xx_HAL_Driver/Src/stm32f4xx_hal_rcc.c ****   if(FLatency < __HAL_FLASH_GET_LATENCY())
 692:Drivers/STM32F4xx_HAL_Driver/Src/stm32f4xx_hal_rcc.c ****   {
 693:Drivers/STM32F4xx_HAL_Driver/Src/stm32f4xx_hal_rcc.c ****      /* Program the new number of wait states to the LATENCY bits in the FLASH_ACR register */
 694:Drivers/STM32F4xx_HAL_Driver/Src/stm32f4xx_hal_rcc.c ****     __HAL_FLASH_SET_LATENCY(FLatency);
 695:Drivers/STM32F4xx_HAL_Driver/Src/stm32f4xx_hal_rcc.c **** 
 696:Drivers/STM32F4xx_HAL_Driver/Src/stm32f4xx_hal_rcc.c ****     /* Check that the new number of wait states is taken into account to access the Flash
 697:Drivers/STM32F4xx_HAL_Driver/Src/stm32f4xx_hal_rcc.c ****     memory by reading the FLASH_ACR register */
 698:Drivers/STM32F4xx_HAL_Driver/Src/stm32f4xx_hal_rcc.c ****     if(__HAL_FLASH_GET_LATENCY() != FLatency)
 699:Drivers/STM32F4xx_HAL_Driver/Src/stm32f4xx_hal_rcc.c ****     {
 700:Drivers/STM32F4xx_HAL_Driver/Src/stm32f4xx_hal_rcc.c ****       return HAL_ERROR;
 701:Drivers/STM32F4xx_HAL_Driver/Src/stm32f4xx_hal_rcc.c ****     }
 702:Drivers/STM32F4xx_HAL_Driver/Src/stm32f4xx_hal_rcc.c ****   }
 703:Drivers/STM32F4xx_HAL_Driver/Src/stm32f4xx_hal_rcc.c **** 
 704:Drivers/STM32F4xx_HAL_Driver/Src/stm32f4xx_hal_rcc.c ****   /*-------------------------- PCLK1 Configuration ---------------------------*/
 705:Drivers/STM32F4xx_HAL_Driver/Src/stm32f4xx_hal_rcc.c ****   if(((RCC_ClkInitStruct->ClockType) & RCC_CLOCKTYPE_PCLK1) == RCC_CLOCKTYPE_PCLK1)
 706:Drivers/STM32F4xx_HAL_Driver/Src/stm32f4xx_hal_rcc.c ****   {
 707:Drivers/STM32F4xx_HAL_Driver/Src/stm32f4xx_hal_rcc.c ****     assert_param(IS_RCC_PCLK(RCC_ClkInitStruct->APB1CLKDivider));
 708:Drivers/STM32F4xx_HAL_Driver/Src/stm32f4xx_hal_rcc.c ****     MODIFY_REG(RCC->CFGR, RCC_CFGR_PPRE1, RCC_ClkInitStruct->APB1CLKDivider);
 709:Drivers/STM32F4xx_HAL_Driver/Src/stm32f4xx_hal_rcc.c ****   }
 710:Drivers/STM32F4xx_HAL_Driver/Src/stm32f4xx_hal_rcc.c **** 
 711:Drivers/STM32F4xx_HAL_Driver/Src/stm32f4xx_hal_rcc.c ****   /*-------------------------- PCLK2 Configuration ---------------------------*/
 712:Drivers/STM32F4xx_HAL_Driver/Src/stm32f4xx_hal_rcc.c ****   if(((RCC_ClkInitStruct->ClockType) & RCC_CLOCKTYPE_PCLK2) == RCC_CLOCKTYPE_PCLK2)
 713:Drivers/STM32F4xx_HAL_Driver/Src/stm32f4xx_hal_rcc.c ****   {
 714:Drivers/STM32F4xx_HAL_Driver/Src/stm32f4xx_hal_rcc.c ****     assert_param(IS_RCC_PCLK(RCC_ClkInitStruct->APB2CLKDivider));
ARM GAS  /tmp/cc4ImuJe.s 			page 32


 715:Drivers/STM32F4xx_HAL_Driver/Src/stm32f4xx_hal_rcc.c ****     MODIFY_REG(RCC->CFGR, RCC_CFGR_PPRE2, ((RCC_ClkInitStruct->APB2CLKDivider) << 3U));
 716:Drivers/STM32F4xx_HAL_Driver/Src/stm32f4xx_hal_rcc.c ****   }
 717:Drivers/STM32F4xx_HAL_Driver/Src/stm32f4xx_hal_rcc.c **** 
 718:Drivers/STM32F4xx_HAL_Driver/Src/stm32f4xx_hal_rcc.c ****   /* Update the SystemCoreClock global variable */
 719:Drivers/STM32F4xx_HAL_Driver/Src/stm32f4xx_hal_rcc.c ****   SystemCoreClock = HAL_RCC_GetSysClockFreq() >> AHBPrescTable[(RCC->CFGR & RCC_CFGR_HPRE)>> RCC_CF
 720:Drivers/STM32F4xx_HAL_Driver/Src/stm32f4xx_hal_rcc.c **** 
 721:Drivers/STM32F4xx_HAL_Driver/Src/stm32f4xx_hal_rcc.c ****   /* Configure the source of time base considering new system clocks settings */
 722:Drivers/STM32F4xx_HAL_Driver/Src/stm32f4xx_hal_rcc.c ****   HAL_InitTick (uwTickPrio);
 723:Drivers/STM32F4xx_HAL_Driver/Src/stm32f4xx_hal_rcc.c **** 
 724:Drivers/STM32F4xx_HAL_Driver/Src/stm32f4xx_hal_rcc.c ****   return HAL_OK;
 725:Drivers/STM32F4xx_HAL_Driver/Src/stm32f4xx_hal_rcc.c **** }
 726:Drivers/STM32F4xx_HAL_Driver/Src/stm32f4xx_hal_rcc.c **** 
 727:Drivers/STM32F4xx_HAL_Driver/Src/stm32f4xx_hal_rcc.c **** /**
 728:Drivers/STM32F4xx_HAL_Driver/Src/stm32f4xx_hal_rcc.c ****   * @}
 729:Drivers/STM32F4xx_HAL_Driver/Src/stm32f4xx_hal_rcc.c ****   */
 730:Drivers/STM32F4xx_HAL_Driver/Src/stm32f4xx_hal_rcc.c **** 
 731:Drivers/STM32F4xx_HAL_Driver/Src/stm32f4xx_hal_rcc.c **** /** @defgroup RCC_Exported_Functions_Group2 Peripheral Control functions
 732:Drivers/STM32F4xx_HAL_Driver/Src/stm32f4xx_hal_rcc.c ****  *  @brief   RCC clocks control functions
 733:Drivers/STM32F4xx_HAL_Driver/Src/stm32f4xx_hal_rcc.c ****  *
 734:Drivers/STM32F4xx_HAL_Driver/Src/stm32f4xx_hal_rcc.c **** @verbatim
 735:Drivers/STM32F4xx_HAL_Driver/Src/stm32f4xx_hal_rcc.c ****  ===============================================================================
 736:Drivers/STM32F4xx_HAL_Driver/Src/stm32f4xx_hal_rcc.c ****                       ##### Peripheral Control functions #####
 737:Drivers/STM32F4xx_HAL_Driver/Src/stm32f4xx_hal_rcc.c ****  ===============================================================================
 738:Drivers/STM32F4xx_HAL_Driver/Src/stm32f4xx_hal_rcc.c ****     [..]
 739:Drivers/STM32F4xx_HAL_Driver/Src/stm32f4xx_hal_rcc.c ****     This subsection provides a set of functions allowing to control the RCC Clocks
 740:Drivers/STM32F4xx_HAL_Driver/Src/stm32f4xx_hal_rcc.c ****     frequencies.
 741:Drivers/STM32F4xx_HAL_Driver/Src/stm32f4xx_hal_rcc.c **** 
 742:Drivers/STM32F4xx_HAL_Driver/Src/stm32f4xx_hal_rcc.c **** @endverbatim
 743:Drivers/STM32F4xx_HAL_Driver/Src/stm32f4xx_hal_rcc.c ****   * @{
 744:Drivers/STM32F4xx_HAL_Driver/Src/stm32f4xx_hal_rcc.c ****   */
 745:Drivers/STM32F4xx_HAL_Driver/Src/stm32f4xx_hal_rcc.c **** 
 746:Drivers/STM32F4xx_HAL_Driver/Src/stm32f4xx_hal_rcc.c **** /**
 747:Drivers/STM32F4xx_HAL_Driver/Src/stm32f4xx_hal_rcc.c ****   * @brief  Selects the clock source to output on MCO1 pin(PA8) or on MCO2 pin(PC9).
 748:Drivers/STM32F4xx_HAL_Driver/Src/stm32f4xx_hal_rcc.c ****   * @note   PA8/PC9 should be configured in alternate function mode.
 749:Drivers/STM32F4xx_HAL_Driver/Src/stm32f4xx_hal_rcc.c ****   * @param  RCC_MCOx specifies the output direction for the clock source.
 750:Drivers/STM32F4xx_HAL_Driver/Src/stm32f4xx_hal_rcc.c ****   *          This parameter can be one of the following values:
 751:Drivers/STM32F4xx_HAL_Driver/Src/stm32f4xx_hal_rcc.c ****   *            @arg RCC_MCO1: Clock source to output on MCO1 pin(PA8).
 752:Drivers/STM32F4xx_HAL_Driver/Src/stm32f4xx_hal_rcc.c ****   *            @arg RCC_MCO2: Clock source to output on MCO2 pin(PC9).
 753:Drivers/STM32F4xx_HAL_Driver/Src/stm32f4xx_hal_rcc.c ****   * @param  RCC_MCOSource specifies the clock source to output.
 754:Drivers/STM32F4xx_HAL_Driver/Src/stm32f4xx_hal_rcc.c ****   *          This parameter can be one of the following values:
 755:Drivers/STM32F4xx_HAL_Driver/Src/stm32f4xx_hal_rcc.c ****   *            @arg RCC_MCO1SOURCE_HSI: HSI clock selected as MCO1 source
 756:Drivers/STM32F4xx_HAL_Driver/Src/stm32f4xx_hal_rcc.c ****   *            @arg RCC_MCO1SOURCE_LSE: LSE clock selected as MCO1 source
 757:Drivers/STM32F4xx_HAL_Driver/Src/stm32f4xx_hal_rcc.c ****   *            @arg RCC_MCO1SOURCE_HSE: HSE clock selected as MCO1 source
 758:Drivers/STM32F4xx_HAL_Driver/Src/stm32f4xx_hal_rcc.c ****   *            @arg RCC_MCO1SOURCE_PLLCLK: main PLL clock selected as MCO1 source
 759:Drivers/STM32F4xx_HAL_Driver/Src/stm32f4xx_hal_rcc.c ****   *            @arg RCC_MCO2SOURCE_SYSCLK: System clock (SYSCLK) selected as MCO2 source
 760:Drivers/STM32F4xx_HAL_Driver/Src/stm32f4xx_hal_rcc.c ****   *            @arg RCC_MCO2SOURCE_PLLI2SCLK: PLLI2S clock selected as MCO2 source, available for a
 761:Drivers/STM32F4xx_HAL_Driver/Src/stm32f4xx_hal_rcc.c ****   *            @arg RCC_MCO2SOURCE_I2SCLK: I2SCLK clock selected as MCO2 source, available only for
 762:Drivers/STM32F4xx_HAL_Driver/Src/stm32f4xx_hal_rcc.c ****   *            @arg RCC_MCO2SOURCE_HSE: HSE clock selected as MCO2 source
 763:Drivers/STM32F4xx_HAL_Driver/Src/stm32f4xx_hal_rcc.c ****   *            @arg RCC_MCO2SOURCE_PLLCLK: main PLL clock selected as MCO2 source
 764:Drivers/STM32F4xx_HAL_Driver/Src/stm32f4xx_hal_rcc.c ****   * @param  RCC_MCODiv specifies the MCOx prescaler.
 765:Drivers/STM32F4xx_HAL_Driver/Src/stm32f4xx_hal_rcc.c ****   *          This parameter can be one of the following values:
 766:Drivers/STM32F4xx_HAL_Driver/Src/stm32f4xx_hal_rcc.c ****   *            @arg RCC_MCODIV_1: no division applied to MCOx clock
 767:Drivers/STM32F4xx_HAL_Driver/Src/stm32f4xx_hal_rcc.c ****   *            @arg RCC_MCODIV_2: division by 2 applied to MCOx clock
 768:Drivers/STM32F4xx_HAL_Driver/Src/stm32f4xx_hal_rcc.c ****   *            @arg RCC_MCODIV_3: division by 3 applied to MCOx clock
 769:Drivers/STM32F4xx_HAL_Driver/Src/stm32f4xx_hal_rcc.c ****   *            @arg RCC_MCODIV_4: division by 4 applied to MCOx clock
 770:Drivers/STM32F4xx_HAL_Driver/Src/stm32f4xx_hal_rcc.c ****   *            @arg RCC_MCODIV_5: division by 5 applied to MCOx clock
 771:Drivers/STM32F4xx_HAL_Driver/Src/stm32f4xx_hal_rcc.c ****   * @note  For STM32F410Rx devices to output I2SCLK clock on MCO2 you should have
ARM GAS  /tmp/cc4ImuJe.s 			page 33


 772:Drivers/STM32F4xx_HAL_Driver/Src/stm32f4xx_hal_rcc.c ****   *        at last one of the SPI clocks enabled (SPI1, SPI2 or SPI5).
 773:Drivers/STM32F4xx_HAL_Driver/Src/stm32f4xx_hal_rcc.c ****   * @retval None
 774:Drivers/STM32F4xx_HAL_Driver/Src/stm32f4xx_hal_rcc.c ****   */
 775:Drivers/STM32F4xx_HAL_Driver/Src/stm32f4xx_hal_rcc.c **** void HAL_RCC_MCOConfig(uint32_t RCC_MCOx, uint32_t RCC_MCOSource, uint32_t RCC_MCODiv)
 776:Drivers/STM32F4xx_HAL_Driver/Src/stm32f4xx_hal_rcc.c **** {
 933              		.loc 1 776 1 is_stmt 1 view -0
 934              		.cfi_startproc
 935              		@ args = 0, pretend = 0, frame = 32
 936              		@ frame_needed = 0, uses_anonymous_args = 0
 937              		.loc 1 776 1 is_stmt 0 view .LVU300
 938 0000 70B5     		push	{r4, r5, r6, lr}
 939              		.cfi_def_cfa_offset 16
 940              		.cfi_offset 4, -16
 941              		.cfi_offset 5, -12
 942              		.cfi_offset 6, -8
 943              		.cfi_offset 14, -4
 944 0002 88B0     		sub	sp, sp, #32
 945              		.cfi_def_cfa_offset 48
 946 0004 0C46     		mov	r4, r1
 947 0006 1546     		mov	r5, r2
 777:Drivers/STM32F4xx_HAL_Driver/Src/stm32f4xx_hal_rcc.c ****   GPIO_InitTypeDef GPIO_InitStruct;
 948              		.loc 1 777 3 is_stmt 1 view .LVU301
 778:Drivers/STM32F4xx_HAL_Driver/Src/stm32f4xx_hal_rcc.c ****   /* Check the parameters */
 779:Drivers/STM32F4xx_HAL_Driver/Src/stm32f4xx_hal_rcc.c ****   assert_param(IS_RCC_MCO(RCC_MCOx));
 949              		.loc 1 779 3 view .LVU302
 780:Drivers/STM32F4xx_HAL_Driver/Src/stm32f4xx_hal_rcc.c ****   assert_param(IS_RCC_MCODIV(RCC_MCODiv));
 950              		.loc 1 780 3 view .LVU303
 781:Drivers/STM32F4xx_HAL_Driver/Src/stm32f4xx_hal_rcc.c ****   /* RCC_MCO1 */
 782:Drivers/STM32F4xx_HAL_Driver/Src/stm32f4xx_hal_rcc.c ****   if(RCC_MCOx == RCC_MCO1)
 951              		.loc 1 782 3 view .LVU304
 952              		.loc 1 782 5 is_stmt 0 view .LVU305
 953 0008 00BB     		cbnz	r0, .L99
 783:Drivers/STM32F4xx_HAL_Driver/Src/stm32f4xx_hal_rcc.c ****   {
 784:Drivers/STM32F4xx_HAL_Driver/Src/stm32f4xx_hal_rcc.c ****     assert_param(IS_RCC_MCO1SOURCE(RCC_MCOSource));
 954              		.loc 1 784 5 is_stmt 1 view .LVU306
 785:Drivers/STM32F4xx_HAL_Driver/Src/stm32f4xx_hal_rcc.c **** 
 786:Drivers/STM32F4xx_HAL_Driver/Src/stm32f4xx_hal_rcc.c ****     /* MCO1 Clock Enable */
 787:Drivers/STM32F4xx_HAL_Driver/Src/stm32f4xx_hal_rcc.c ****     __MCO1_CLK_ENABLE();
 955              		.loc 1 787 5 view .LVU307
 956              	.LBB5:
 957              		.loc 1 787 5 view .LVU308
 958 000a 0023     		movs	r3, #0
 959 000c 0193     		str	r3, [sp, #4]
 960              		.loc 1 787 5 view .LVU309
 961 000e 204E     		ldr	r6, .L102
 962 0010 326B     		ldr	r2, [r6, #48]
 963              	.LVL65:
 964              		.loc 1 787 5 is_stmt 0 view .LVU310
 965 0012 42F00102 		orr	r2, r2, #1
 966 0016 3263     		str	r2, [r6, #48]
 967              		.loc 1 787 5 is_stmt 1 view .LVU311
 968 0018 326B     		ldr	r2, [r6, #48]
 969 001a 02F00102 		and	r2, r2, #1
 970 001e 0192     		str	r2, [sp, #4]
 971              		.loc 1 787 5 view .LVU312
 972 0020 019A     		ldr	r2, [sp, #4]
 973              	.LBE5:
ARM GAS  /tmp/cc4ImuJe.s 			page 34


 974              		.loc 1 787 5 view .LVU313
 788:Drivers/STM32F4xx_HAL_Driver/Src/stm32f4xx_hal_rcc.c **** 
 789:Drivers/STM32F4xx_HAL_Driver/Src/stm32f4xx_hal_rcc.c ****     /* Configure the MCO1 pin in alternate function mode */
 790:Drivers/STM32F4xx_HAL_Driver/Src/stm32f4xx_hal_rcc.c ****     GPIO_InitStruct.Pin = MCO1_PIN;
 975              		.loc 1 790 5 view .LVU314
 976              		.loc 1 790 25 is_stmt 0 view .LVU315
 977 0022 4FF48072 		mov	r2, #256
 978 0026 0392     		str	r2, [sp, #12]
 791:Drivers/STM32F4xx_HAL_Driver/Src/stm32f4xx_hal_rcc.c ****     GPIO_InitStruct.Mode = GPIO_MODE_AF_PP;
 979              		.loc 1 791 5 is_stmt 1 view .LVU316
 980              		.loc 1 791 26 is_stmt 0 view .LVU317
 981 0028 0222     		movs	r2, #2
 982 002a 0492     		str	r2, [sp, #16]
 792:Drivers/STM32F4xx_HAL_Driver/Src/stm32f4xx_hal_rcc.c ****     GPIO_InitStruct.Speed = GPIO_SPEED_FREQ_VERY_HIGH;
 983              		.loc 1 792 5 is_stmt 1 view .LVU318
 984              		.loc 1 792 27 is_stmt 0 view .LVU319
 985 002c 0322     		movs	r2, #3
 986 002e 0692     		str	r2, [sp, #24]
 793:Drivers/STM32F4xx_HAL_Driver/Src/stm32f4xx_hal_rcc.c ****     GPIO_InitStruct.Pull = GPIO_NOPULL;
 987              		.loc 1 793 5 is_stmt 1 view .LVU320
 988              		.loc 1 793 26 is_stmt 0 view .LVU321
 989 0030 0593     		str	r3, [sp, #20]
 794:Drivers/STM32F4xx_HAL_Driver/Src/stm32f4xx_hal_rcc.c ****     GPIO_InitStruct.Alternate = GPIO_AF0_MCO;
 990              		.loc 1 794 5 is_stmt 1 view .LVU322
 991              		.loc 1 794 31 is_stmt 0 view .LVU323
 992 0032 0793     		str	r3, [sp, #28]
 795:Drivers/STM32F4xx_HAL_Driver/Src/stm32f4xx_hal_rcc.c ****     HAL_GPIO_Init(MCO1_GPIO_PORT, &GPIO_InitStruct);
 993              		.loc 1 795 5 is_stmt 1 view .LVU324
 994 0034 03A9     		add	r1, sp, #12
 995              	.LVL66:
 996              		.loc 1 795 5 is_stmt 0 view .LVU325
 997 0036 1748     		ldr	r0, .L102+4
 998              	.LVL67:
 999              		.loc 1 795 5 view .LVU326
 1000 0038 FFF7FEFF 		bl	HAL_GPIO_Init
 1001              	.LVL68:
 796:Drivers/STM32F4xx_HAL_Driver/Src/stm32f4xx_hal_rcc.c **** 
 797:Drivers/STM32F4xx_HAL_Driver/Src/stm32f4xx_hal_rcc.c ****     /* Mask MCO1 and MCO1PRE[2:0] bits then Select MCO1 clock source and prescaler */
 798:Drivers/STM32F4xx_HAL_Driver/Src/stm32f4xx_hal_rcc.c ****     MODIFY_REG(RCC->CFGR, (RCC_CFGR_MCO1 | RCC_CFGR_MCO1PRE), (RCC_MCOSource | RCC_MCODiv));
 1002              		.loc 1 798 5 is_stmt 1 view .LVU327
 1003 003c B368     		ldr	r3, [r6, #8]
 1004 003e 23F0EC63 		bic	r3, r3, #123731968
 1005 0042 2543     		orrs	r5, r5, r4
 1006              	.LVL69:
 1007              		.loc 1 798 5 is_stmt 0 view .LVU328
 1008 0044 1D43     		orrs	r5, r5, r3
 1009 0046 B560     		str	r5, [r6, #8]
 1010              	.LVL70:
 1011              	.L98:
 799:Drivers/STM32F4xx_HAL_Driver/Src/stm32f4xx_hal_rcc.c **** 
 800:Drivers/STM32F4xx_HAL_Driver/Src/stm32f4xx_hal_rcc.c ****    /* This RCC MCO1 enable feature is available only on STM32F410xx devices */
 801:Drivers/STM32F4xx_HAL_Driver/Src/stm32f4xx_hal_rcc.c **** #if defined(RCC_CFGR_MCO1EN)
 802:Drivers/STM32F4xx_HAL_Driver/Src/stm32f4xx_hal_rcc.c ****     __HAL_RCC_MCO1_ENABLE();
 803:Drivers/STM32F4xx_HAL_Driver/Src/stm32f4xx_hal_rcc.c **** #endif /* RCC_CFGR_MCO1EN */
 804:Drivers/STM32F4xx_HAL_Driver/Src/stm32f4xx_hal_rcc.c ****   }
 805:Drivers/STM32F4xx_HAL_Driver/Src/stm32f4xx_hal_rcc.c **** #if defined(RCC_CFGR_MCO2)
 806:Drivers/STM32F4xx_HAL_Driver/Src/stm32f4xx_hal_rcc.c ****   else
ARM GAS  /tmp/cc4ImuJe.s 			page 35


 807:Drivers/STM32F4xx_HAL_Driver/Src/stm32f4xx_hal_rcc.c ****   {
 808:Drivers/STM32F4xx_HAL_Driver/Src/stm32f4xx_hal_rcc.c ****     assert_param(IS_RCC_MCO2SOURCE(RCC_MCOSource));
 809:Drivers/STM32F4xx_HAL_Driver/Src/stm32f4xx_hal_rcc.c **** 
 810:Drivers/STM32F4xx_HAL_Driver/Src/stm32f4xx_hal_rcc.c ****     /* MCO2 Clock Enable */
 811:Drivers/STM32F4xx_HAL_Driver/Src/stm32f4xx_hal_rcc.c ****     __MCO2_CLK_ENABLE();
 812:Drivers/STM32F4xx_HAL_Driver/Src/stm32f4xx_hal_rcc.c **** 
 813:Drivers/STM32F4xx_HAL_Driver/Src/stm32f4xx_hal_rcc.c ****     /* Configure the MCO2 pin in alternate function mode */
 814:Drivers/STM32F4xx_HAL_Driver/Src/stm32f4xx_hal_rcc.c ****     GPIO_InitStruct.Pin = MCO2_PIN;
 815:Drivers/STM32F4xx_HAL_Driver/Src/stm32f4xx_hal_rcc.c ****     GPIO_InitStruct.Mode = GPIO_MODE_AF_PP;
 816:Drivers/STM32F4xx_HAL_Driver/Src/stm32f4xx_hal_rcc.c ****     GPIO_InitStruct.Speed = GPIO_SPEED_FREQ_VERY_HIGH;
 817:Drivers/STM32F4xx_HAL_Driver/Src/stm32f4xx_hal_rcc.c ****     GPIO_InitStruct.Pull = GPIO_NOPULL;
 818:Drivers/STM32F4xx_HAL_Driver/Src/stm32f4xx_hal_rcc.c ****     GPIO_InitStruct.Alternate = GPIO_AF0_MCO;
 819:Drivers/STM32F4xx_HAL_Driver/Src/stm32f4xx_hal_rcc.c ****     HAL_GPIO_Init(MCO2_GPIO_PORT, &GPIO_InitStruct);
 820:Drivers/STM32F4xx_HAL_Driver/Src/stm32f4xx_hal_rcc.c **** 
 821:Drivers/STM32F4xx_HAL_Driver/Src/stm32f4xx_hal_rcc.c ****     /* Mask MCO2 and MCO2PRE[2:0] bits then Select MCO2 clock source and prescaler */
 822:Drivers/STM32F4xx_HAL_Driver/Src/stm32f4xx_hal_rcc.c ****     MODIFY_REG(RCC->CFGR, (RCC_CFGR_MCO2 | RCC_CFGR_MCO2PRE), (RCC_MCOSource | (RCC_MCODiv << 3U)))
 823:Drivers/STM32F4xx_HAL_Driver/Src/stm32f4xx_hal_rcc.c **** 
 824:Drivers/STM32F4xx_HAL_Driver/Src/stm32f4xx_hal_rcc.c ****    /* This RCC MCO2 enable feature is available only on STM32F410Rx devices */
 825:Drivers/STM32F4xx_HAL_Driver/Src/stm32f4xx_hal_rcc.c **** #if defined(RCC_CFGR_MCO2EN)
 826:Drivers/STM32F4xx_HAL_Driver/Src/stm32f4xx_hal_rcc.c ****     __HAL_RCC_MCO2_ENABLE();
 827:Drivers/STM32F4xx_HAL_Driver/Src/stm32f4xx_hal_rcc.c **** #endif /* RCC_CFGR_MCO2EN */
 828:Drivers/STM32F4xx_HAL_Driver/Src/stm32f4xx_hal_rcc.c ****   }
 829:Drivers/STM32F4xx_HAL_Driver/Src/stm32f4xx_hal_rcc.c **** #endif /* RCC_CFGR_MCO2 */
 830:Drivers/STM32F4xx_HAL_Driver/Src/stm32f4xx_hal_rcc.c **** }
 1012              		.loc 1 830 1 view .LVU329
 1013 0048 08B0     		add	sp, sp, #32
 1014              		.cfi_remember_state
 1015              		.cfi_def_cfa_offset 16
 1016              		@ sp needed
 1017 004a 70BD     		pop	{r4, r5, r6, pc}
 1018              	.LVL71:
 1019              	.L99:
 1020              		.cfi_restore_state
 808:Drivers/STM32F4xx_HAL_Driver/Src/stm32f4xx_hal_rcc.c **** 
 1021              		.loc 1 808 5 is_stmt 1 view .LVU330
 811:Drivers/STM32F4xx_HAL_Driver/Src/stm32f4xx_hal_rcc.c **** 
 1022              		.loc 1 811 5 view .LVU331
 1023              	.LBB6:
 811:Drivers/STM32F4xx_HAL_Driver/Src/stm32f4xx_hal_rcc.c **** 
 1024              		.loc 1 811 5 view .LVU332
 1025 004c 0023     		movs	r3, #0
 1026 004e 0293     		str	r3, [sp, #8]
 811:Drivers/STM32F4xx_HAL_Driver/Src/stm32f4xx_hal_rcc.c **** 
 1027              		.loc 1 811 5 view .LVU333
 1028 0050 0F4E     		ldr	r6, .L102
 1029 0052 326B     		ldr	r2, [r6, #48]
 1030              	.LVL72:
 811:Drivers/STM32F4xx_HAL_Driver/Src/stm32f4xx_hal_rcc.c **** 
 1031              		.loc 1 811 5 is_stmt 0 view .LVU334
 1032 0054 42F00402 		orr	r2, r2, #4
 1033 0058 3263     		str	r2, [r6, #48]
 811:Drivers/STM32F4xx_HAL_Driver/Src/stm32f4xx_hal_rcc.c **** 
 1034              		.loc 1 811 5 is_stmt 1 view .LVU335
 1035 005a 326B     		ldr	r2, [r6, #48]
 1036 005c 02F00402 		and	r2, r2, #4
 1037 0060 0292     		str	r2, [sp, #8]
 811:Drivers/STM32F4xx_HAL_Driver/Src/stm32f4xx_hal_rcc.c **** 
ARM GAS  /tmp/cc4ImuJe.s 			page 36


 1038              		.loc 1 811 5 view .LVU336
 1039 0062 029A     		ldr	r2, [sp, #8]
 1040              	.LBE6:
 811:Drivers/STM32F4xx_HAL_Driver/Src/stm32f4xx_hal_rcc.c **** 
 1041              		.loc 1 811 5 view .LVU337
 814:Drivers/STM32F4xx_HAL_Driver/Src/stm32f4xx_hal_rcc.c ****     GPIO_InitStruct.Mode = GPIO_MODE_AF_PP;
 1042              		.loc 1 814 5 view .LVU338
 814:Drivers/STM32F4xx_HAL_Driver/Src/stm32f4xx_hal_rcc.c ****     GPIO_InitStruct.Mode = GPIO_MODE_AF_PP;
 1043              		.loc 1 814 25 is_stmt 0 view .LVU339
 1044 0064 4FF40072 		mov	r2, #512
 1045 0068 0392     		str	r2, [sp, #12]
 815:Drivers/STM32F4xx_HAL_Driver/Src/stm32f4xx_hal_rcc.c ****     GPIO_InitStruct.Speed = GPIO_SPEED_FREQ_VERY_HIGH;
 1046              		.loc 1 815 5 is_stmt 1 view .LVU340
 815:Drivers/STM32F4xx_HAL_Driver/Src/stm32f4xx_hal_rcc.c ****     GPIO_InitStruct.Speed = GPIO_SPEED_FREQ_VERY_HIGH;
 1047              		.loc 1 815 26 is_stmt 0 view .LVU341
 1048 006a 0222     		movs	r2, #2
 1049 006c 0492     		str	r2, [sp, #16]
 816:Drivers/STM32F4xx_HAL_Driver/Src/stm32f4xx_hal_rcc.c ****     GPIO_InitStruct.Pull = GPIO_NOPULL;
 1050              		.loc 1 816 5 is_stmt 1 view .LVU342
 816:Drivers/STM32F4xx_HAL_Driver/Src/stm32f4xx_hal_rcc.c ****     GPIO_InitStruct.Pull = GPIO_NOPULL;
 1051              		.loc 1 816 27 is_stmt 0 view .LVU343
 1052 006e 0322     		movs	r2, #3
 1053 0070 0692     		str	r2, [sp, #24]
 817:Drivers/STM32F4xx_HAL_Driver/Src/stm32f4xx_hal_rcc.c ****     GPIO_InitStruct.Alternate = GPIO_AF0_MCO;
 1054              		.loc 1 817 5 is_stmt 1 view .LVU344
 817:Drivers/STM32F4xx_HAL_Driver/Src/stm32f4xx_hal_rcc.c ****     GPIO_InitStruct.Alternate = GPIO_AF0_MCO;
 1055              		.loc 1 817 26 is_stmt 0 view .LVU345
 1056 0072 0593     		str	r3, [sp, #20]
 818:Drivers/STM32F4xx_HAL_Driver/Src/stm32f4xx_hal_rcc.c ****     HAL_GPIO_Init(MCO2_GPIO_PORT, &GPIO_InitStruct);
 1057              		.loc 1 818 5 is_stmt 1 view .LVU346
 818:Drivers/STM32F4xx_HAL_Driver/Src/stm32f4xx_hal_rcc.c ****     HAL_GPIO_Init(MCO2_GPIO_PORT, &GPIO_InitStruct);
 1058              		.loc 1 818 31 is_stmt 0 view .LVU347
 1059 0074 0793     		str	r3, [sp, #28]
 819:Drivers/STM32F4xx_HAL_Driver/Src/stm32f4xx_hal_rcc.c **** 
 1060              		.loc 1 819 5 is_stmt 1 view .LVU348
 1061 0076 03A9     		add	r1, sp, #12
 1062              	.LVL73:
 819:Drivers/STM32F4xx_HAL_Driver/Src/stm32f4xx_hal_rcc.c **** 
 1063              		.loc 1 819 5 is_stmt 0 view .LVU349
 1064 0078 0748     		ldr	r0, .L102+8
 1065              	.LVL74:
 819:Drivers/STM32F4xx_HAL_Driver/Src/stm32f4xx_hal_rcc.c **** 
 1066              		.loc 1 819 5 view .LVU350
 1067 007a FFF7FEFF 		bl	HAL_GPIO_Init
 1068              	.LVL75:
 822:Drivers/STM32F4xx_HAL_Driver/Src/stm32f4xx_hal_rcc.c **** 
 1069              		.loc 1 822 5 is_stmt 1 view .LVU351
 1070 007e B368     		ldr	r3, [r6, #8]
 1071 0080 23F07843 		bic	r3, r3, #-134217728
 1072 0084 44EAC504 		orr	r4, r4, r5, lsl #3
 1073              	.LVL76:
 822:Drivers/STM32F4xx_HAL_Driver/Src/stm32f4xx_hal_rcc.c **** 
 1074              		.loc 1 822 5 is_stmt 0 view .LVU352
 1075 0088 1C43     		orrs	r4, r4, r3
 1076 008a B460     		str	r4, [r6, #8]
 1077              		.loc 1 830 1 view .LVU353
 1078 008c DCE7     		b	.L98
ARM GAS  /tmp/cc4ImuJe.s 			page 37


 1079              	.L103:
 1080 008e 00BF     		.align	2
 1081              	.L102:
 1082 0090 00380240 		.word	1073887232
 1083 0094 00000240 		.word	1073872896
 1084 0098 00080240 		.word	1073874944
 1085              		.cfi_endproc
 1086              	.LFE133:
 1088              		.section	.text.HAL_RCC_EnableCSS,"ax",%progbits
 1089              		.align	1
 1090              		.global	HAL_RCC_EnableCSS
 1091              		.syntax unified
 1092              		.thumb
 1093              		.thumb_func
 1095              	HAL_RCC_EnableCSS:
 1096              	.LFB134:
 831:Drivers/STM32F4xx_HAL_Driver/Src/stm32f4xx_hal_rcc.c **** 
 832:Drivers/STM32F4xx_HAL_Driver/Src/stm32f4xx_hal_rcc.c **** /**
 833:Drivers/STM32F4xx_HAL_Driver/Src/stm32f4xx_hal_rcc.c ****   * @brief  Enables the Clock Security System.
 834:Drivers/STM32F4xx_HAL_Driver/Src/stm32f4xx_hal_rcc.c ****   * @note   If a failure is detected on the HSE oscillator clock, this oscillator
 835:Drivers/STM32F4xx_HAL_Driver/Src/stm32f4xx_hal_rcc.c ****   *         is automatically disabled and an interrupt is generated to inform the
 836:Drivers/STM32F4xx_HAL_Driver/Src/stm32f4xx_hal_rcc.c ****   *         software about the failure (Clock Security System Interrupt, CSSI),
 837:Drivers/STM32F4xx_HAL_Driver/Src/stm32f4xx_hal_rcc.c ****   *         allowing the MCU to perform rescue operations. The CSSI is linked to
 838:Drivers/STM32F4xx_HAL_Driver/Src/stm32f4xx_hal_rcc.c ****   *         the Cortex-M4 NMI (Non-Maskable Interrupt) exception vector.
 839:Drivers/STM32F4xx_HAL_Driver/Src/stm32f4xx_hal_rcc.c ****   * @retval None
 840:Drivers/STM32F4xx_HAL_Driver/Src/stm32f4xx_hal_rcc.c ****   */
 841:Drivers/STM32F4xx_HAL_Driver/Src/stm32f4xx_hal_rcc.c **** void HAL_RCC_EnableCSS(void)
 842:Drivers/STM32F4xx_HAL_Driver/Src/stm32f4xx_hal_rcc.c **** {
 1097              		.loc 1 842 1 is_stmt 1 view -0
 1098              		.cfi_startproc
 1099              		@ args = 0, pretend = 0, frame = 0
 1100              		@ frame_needed = 0, uses_anonymous_args = 0
 1101              		@ link register save eliminated.
 843:Drivers/STM32F4xx_HAL_Driver/Src/stm32f4xx_hal_rcc.c ****   *(__IO uint32_t *) RCC_CR_CSSON_BB = (uint32_t)ENABLE;
 1102              		.loc 1 843 3 view .LVU355
 1103              		.loc 1 843 38 is_stmt 0 view .LVU356
 1104 0000 014B     		ldr	r3, .L105
 1105 0002 0122     		movs	r2, #1
 1106 0004 DA64     		str	r2, [r3, #76]
 844:Drivers/STM32F4xx_HAL_Driver/Src/stm32f4xx_hal_rcc.c **** }
 1107              		.loc 1 844 1 view .LVU357
 1108 0006 7047     		bx	lr
 1109              	.L106:
 1110              		.align	2
 1111              	.L105:
 1112 0008 00004742 		.word	1111949312
 1113              		.cfi_endproc
 1114              	.LFE134:
 1116              		.section	.text.HAL_RCC_DisableCSS,"ax",%progbits
 1117              		.align	1
 1118              		.global	HAL_RCC_DisableCSS
 1119              		.syntax unified
 1120              		.thumb
 1121              		.thumb_func
 1123              	HAL_RCC_DisableCSS:
 1124              	.LFB135:
 845:Drivers/STM32F4xx_HAL_Driver/Src/stm32f4xx_hal_rcc.c **** 
ARM GAS  /tmp/cc4ImuJe.s 			page 38


 846:Drivers/STM32F4xx_HAL_Driver/Src/stm32f4xx_hal_rcc.c **** /**
 847:Drivers/STM32F4xx_HAL_Driver/Src/stm32f4xx_hal_rcc.c ****   * @brief  Disables the Clock Security System.
 848:Drivers/STM32F4xx_HAL_Driver/Src/stm32f4xx_hal_rcc.c ****   * @retval None
 849:Drivers/STM32F4xx_HAL_Driver/Src/stm32f4xx_hal_rcc.c ****   */
 850:Drivers/STM32F4xx_HAL_Driver/Src/stm32f4xx_hal_rcc.c **** void HAL_RCC_DisableCSS(void)
 851:Drivers/STM32F4xx_HAL_Driver/Src/stm32f4xx_hal_rcc.c **** {
 1125              		.loc 1 851 1 is_stmt 1 view -0
 1126              		.cfi_startproc
 1127              		@ args = 0, pretend = 0, frame = 0
 1128              		@ frame_needed = 0, uses_anonymous_args = 0
 1129              		@ link register save eliminated.
 852:Drivers/STM32F4xx_HAL_Driver/Src/stm32f4xx_hal_rcc.c ****   *(__IO uint32_t *) RCC_CR_CSSON_BB = (uint32_t)DISABLE;
 1130              		.loc 1 852 3 view .LVU359
 1131              		.loc 1 852 38 is_stmt 0 view .LVU360
 1132 0000 014B     		ldr	r3, .L108
 1133 0002 0022     		movs	r2, #0
 1134 0004 DA64     		str	r2, [r3, #76]
 853:Drivers/STM32F4xx_HAL_Driver/Src/stm32f4xx_hal_rcc.c **** }
 1135              		.loc 1 853 1 view .LVU361
 1136 0006 7047     		bx	lr
 1137              	.L109:
 1138              		.align	2
 1139              	.L108:
 1140 0008 00004742 		.word	1111949312
 1141              		.cfi_endproc
 1142              	.LFE135:
 1144              		.section	.text.HAL_RCC_GetSysClockFreq,"ax",%progbits
 1145              		.align	1
 1146              		.weak	HAL_RCC_GetSysClockFreq
 1147              		.syntax unified
 1148              		.thumb
 1149              		.thumb_func
 1151              	HAL_RCC_GetSysClockFreq:
 1152              	.LFB136:
 854:Drivers/STM32F4xx_HAL_Driver/Src/stm32f4xx_hal_rcc.c **** 
 855:Drivers/STM32F4xx_HAL_Driver/Src/stm32f4xx_hal_rcc.c **** /**
 856:Drivers/STM32F4xx_HAL_Driver/Src/stm32f4xx_hal_rcc.c ****   * @brief  Returns the SYSCLK frequency
 857:Drivers/STM32F4xx_HAL_Driver/Src/stm32f4xx_hal_rcc.c ****   *
 858:Drivers/STM32F4xx_HAL_Driver/Src/stm32f4xx_hal_rcc.c ****   * @note   The system frequency computed by this function is not the real
 859:Drivers/STM32F4xx_HAL_Driver/Src/stm32f4xx_hal_rcc.c ****   *         frequency in the chip. It is calculated based on the predefined
 860:Drivers/STM32F4xx_HAL_Driver/Src/stm32f4xx_hal_rcc.c ****   *         constant and the selected clock source:
 861:Drivers/STM32F4xx_HAL_Driver/Src/stm32f4xx_hal_rcc.c ****   * @note     If SYSCLK source is HSI, function returns values based on HSI_VALUE(*)
 862:Drivers/STM32F4xx_HAL_Driver/Src/stm32f4xx_hal_rcc.c ****   * @note     If SYSCLK source is HSE, function returns values based on HSE_VALUE(**)
 863:Drivers/STM32F4xx_HAL_Driver/Src/stm32f4xx_hal_rcc.c ****   * @note     If SYSCLK source is PLL, function returns values based on HSE_VALUE(**)
 864:Drivers/STM32F4xx_HAL_Driver/Src/stm32f4xx_hal_rcc.c ****   *           or HSI_VALUE(*) multiplied/divided by the PLL factors.
 865:Drivers/STM32F4xx_HAL_Driver/Src/stm32f4xx_hal_rcc.c ****   * @note     (*) HSI_VALUE is a constant defined in stm32f4xx_hal_conf.h file (default value
 866:Drivers/STM32F4xx_HAL_Driver/Src/stm32f4xx_hal_rcc.c ****   *               16 MHz) but the real value may vary depending on the variations
 867:Drivers/STM32F4xx_HAL_Driver/Src/stm32f4xx_hal_rcc.c ****   *               in voltage and temperature.
 868:Drivers/STM32F4xx_HAL_Driver/Src/stm32f4xx_hal_rcc.c ****   * @note     (**) HSE_VALUE is a constant defined in stm32f4xx_hal_conf.h file (default value
 869:Drivers/STM32F4xx_HAL_Driver/Src/stm32f4xx_hal_rcc.c ****   *                25 MHz), user has to ensure that HSE_VALUE is same as the real
 870:Drivers/STM32F4xx_HAL_Driver/Src/stm32f4xx_hal_rcc.c ****   *                frequency of the crystal used. Otherwise, this function may
 871:Drivers/STM32F4xx_HAL_Driver/Src/stm32f4xx_hal_rcc.c ****   *                have wrong result.
 872:Drivers/STM32F4xx_HAL_Driver/Src/stm32f4xx_hal_rcc.c ****   *
 873:Drivers/STM32F4xx_HAL_Driver/Src/stm32f4xx_hal_rcc.c ****   * @note   The result of this function could be not correct when using fractional
 874:Drivers/STM32F4xx_HAL_Driver/Src/stm32f4xx_hal_rcc.c ****   *         value for HSE crystal.
 875:Drivers/STM32F4xx_HAL_Driver/Src/stm32f4xx_hal_rcc.c ****   *
 876:Drivers/STM32F4xx_HAL_Driver/Src/stm32f4xx_hal_rcc.c ****   * @note   This function can be used by the user application to compute the
ARM GAS  /tmp/cc4ImuJe.s 			page 39


 877:Drivers/STM32F4xx_HAL_Driver/Src/stm32f4xx_hal_rcc.c ****   *         baudrate for the communication peripherals or configure other parameters.
 878:Drivers/STM32F4xx_HAL_Driver/Src/stm32f4xx_hal_rcc.c ****   *
 879:Drivers/STM32F4xx_HAL_Driver/Src/stm32f4xx_hal_rcc.c ****   * @note   Each time SYSCLK changes, this function must be called to update the
 880:Drivers/STM32F4xx_HAL_Driver/Src/stm32f4xx_hal_rcc.c ****   *         right SYSCLK value. Otherwise, any configuration based on this function will be incorre
 881:Drivers/STM32F4xx_HAL_Driver/Src/stm32f4xx_hal_rcc.c ****   *
 882:Drivers/STM32F4xx_HAL_Driver/Src/stm32f4xx_hal_rcc.c ****   *
 883:Drivers/STM32F4xx_HAL_Driver/Src/stm32f4xx_hal_rcc.c ****   * @retval SYSCLK frequency
 884:Drivers/STM32F4xx_HAL_Driver/Src/stm32f4xx_hal_rcc.c ****   */
 885:Drivers/STM32F4xx_HAL_Driver/Src/stm32f4xx_hal_rcc.c **** __weak uint32_t HAL_RCC_GetSysClockFreq(void)
 886:Drivers/STM32F4xx_HAL_Driver/Src/stm32f4xx_hal_rcc.c **** {
 1153              		.loc 1 886 1 is_stmt 1 view -0
 1154              		.cfi_startproc
 1155              		@ args = 0, pretend = 0, frame = 0
 1156              		@ frame_needed = 0, uses_anonymous_args = 0
 1157 0000 08B5     		push	{r3, lr}
 1158              		.cfi_def_cfa_offset 8
 1159              		.cfi_offset 3, -8
 1160              		.cfi_offset 14, -4
 887:Drivers/STM32F4xx_HAL_Driver/Src/stm32f4xx_hal_rcc.c ****   uint32_t pllm = 0U, pllvco = 0U, pllp = 0U;
 1161              		.loc 1 887 3 view .LVU363
 1162              	.LVL77:
 888:Drivers/STM32F4xx_HAL_Driver/Src/stm32f4xx_hal_rcc.c ****   uint32_t sysclockfreq = 0U;
 1163              		.loc 1 888 3 view .LVU364
 889:Drivers/STM32F4xx_HAL_Driver/Src/stm32f4xx_hal_rcc.c **** 
 890:Drivers/STM32F4xx_HAL_Driver/Src/stm32f4xx_hal_rcc.c ****   /* Get SYSCLK source -------------------------------------------------------*/
 891:Drivers/STM32F4xx_HAL_Driver/Src/stm32f4xx_hal_rcc.c ****   switch (RCC->CFGR & RCC_CFGR_SWS)
 1164              		.loc 1 891 3 view .LVU365
 1165              		.loc 1 891 14 is_stmt 0 view .LVU366
 1166 0002 334B     		ldr	r3, .L117
 1167 0004 9B68     		ldr	r3, [r3, #8]
 1168              		.loc 1 891 21 view .LVU367
 1169 0006 03F00C03 		and	r3, r3, #12
 1170              		.loc 1 891 3 view .LVU368
 1171 000a 042B     		cmp	r3, #4
 1172 000c 5BD0     		beq	.L114
 1173 000e 082B     		cmp	r3, #8
 1174 0010 5BD1     		bne	.L115
 892:Drivers/STM32F4xx_HAL_Driver/Src/stm32f4xx_hal_rcc.c ****   {
 893:Drivers/STM32F4xx_HAL_Driver/Src/stm32f4xx_hal_rcc.c ****     case RCC_CFGR_SWS_HSI:  /* HSI used as system clock source */
 894:Drivers/STM32F4xx_HAL_Driver/Src/stm32f4xx_hal_rcc.c ****     {
 895:Drivers/STM32F4xx_HAL_Driver/Src/stm32f4xx_hal_rcc.c ****       sysclockfreq = HSI_VALUE;
 896:Drivers/STM32F4xx_HAL_Driver/Src/stm32f4xx_hal_rcc.c ****        break;
 897:Drivers/STM32F4xx_HAL_Driver/Src/stm32f4xx_hal_rcc.c ****     }
 898:Drivers/STM32F4xx_HAL_Driver/Src/stm32f4xx_hal_rcc.c ****     case RCC_CFGR_SWS_HSE:  /* HSE used as system clock  source */
 899:Drivers/STM32F4xx_HAL_Driver/Src/stm32f4xx_hal_rcc.c ****     {
 900:Drivers/STM32F4xx_HAL_Driver/Src/stm32f4xx_hal_rcc.c ****       sysclockfreq = HSE_VALUE;
 901:Drivers/STM32F4xx_HAL_Driver/Src/stm32f4xx_hal_rcc.c ****       break;
 902:Drivers/STM32F4xx_HAL_Driver/Src/stm32f4xx_hal_rcc.c ****     }
 903:Drivers/STM32F4xx_HAL_Driver/Src/stm32f4xx_hal_rcc.c ****     case RCC_CFGR_SWS_PLL:  /* PLL used as system clock  source */
 904:Drivers/STM32F4xx_HAL_Driver/Src/stm32f4xx_hal_rcc.c ****     {
 905:Drivers/STM32F4xx_HAL_Driver/Src/stm32f4xx_hal_rcc.c ****       /* PLL_VCO = (HSE_VALUE or HSI_VALUE / PLLM) * PLLN
 906:Drivers/STM32F4xx_HAL_Driver/Src/stm32f4xx_hal_rcc.c ****       SYSCLK = PLL_VCO / PLLP */
 907:Drivers/STM32F4xx_HAL_Driver/Src/stm32f4xx_hal_rcc.c ****       pllm = RCC->PLLCFGR & RCC_PLLCFGR_PLLM;
 1175              		.loc 1 907 7 is_stmt 1 view .LVU369
 1176              		.loc 1 907 17 is_stmt 0 view .LVU370
 1177 0012 2F4B     		ldr	r3, .L117
 1178 0014 5A68     		ldr	r2, [r3, #4]
ARM GAS  /tmp/cc4ImuJe.s 			page 40


 1179              		.loc 1 907 12 view .LVU371
 1180 0016 02F03F02 		and	r2, r2, #63
 1181              	.LVL78:
 908:Drivers/STM32F4xx_HAL_Driver/Src/stm32f4xx_hal_rcc.c ****       if(__HAL_RCC_GET_PLL_OSCSOURCE() != RCC_PLLSOURCE_HSI)
 1182              		.loc 1 908 7 is_stmt 1 view .LVU372
 1183              		.loc 1 908 10 is_stmt 0 view .LVU373
 1184 001a 5B68     		ldr	r3, [r3, #4]
 1185              		.loc 1 908 9 view .LVU374
 1186 001c 13F4800F 		tst	r3, #4194304
 1187 0020 2CD0     		beq	.L112
 909:Drivers/STM32F4xx_HAL_Driver/Src/stm32f4xx_hal_rcc.c ****       {
 910:Drivers/STM32F4xx_HAL_Driver/Src/stm32f4xx_hal_rcc.c ****         /* HSE used as PLL clock source */
 911:Drivers/STM32F4xx_HAL_Driver/Src/stm32f4xx_hal_rcc.c ****         pllvco = (uint32_t) ((((uint64_t) HSE_VALUE * ((uint64_t) ((RCC->PLLCFGR & RCC_PLLCFGR_PLLN
 1188              		.loc 1 911 9 is_stmt 1 view .LVU375
 1189              		.loc 1 911 72 is_stmt 0 view .LVU376
 1190 0022 2B4B     		ldr	r3, .L117
 1191 0024 5868     		ldr	r0, [r3, #4]
 1192              		.loc 1 911 56 view .LVU377
 1193 0026 C0F38810 		ubfx	r0, r0, #6, #9
 1194              		.loc 1 911 53 view .LVU378
 1195 002a 4FEA401C 		lsl	ip, r0, #5
 1196 002e BCEB000C 		subs	ip, ip, r0
 1197 0032 6EEB0E0E 		sbc	lr, lr, lr
 1198 0036 4FEA8E13 		lsl	r3, lr, #6
 1199 003a 43EA9C63 		orr	r3, r3, ip, lsr #26
 1200 003e 4FEA8C11 		lsl	r1, ip, #6
 1201 0042 B1EB0C01 		subs	r1, r1, ip
 1202 0046 63EB0E03 		sbc	r3, r3, lr
 1203 004a DB00     		lsls	r3, r3, #3
 1204 004c 43EA5173 		orr	r3, r3, r1, lsr #29
 1205 0050 C900     		lsls	r1, r1, #3
 1206 0052 11EB000C 		adds	ip, r1, r0
 1207 0056 43F10003 		adc	r3, r3, #0
 1208 005a 5902     		lsls	r1, r3, #9
 1209              		.loc 1 911 130 view .LVU379
 1210 005c 0023     		movs	r3, #0
 1211 005e 4FEA4C20 		lsl	r0, ip, #9
 1212 0062 41EADC51 		orr	r1, r1, ip, lsr #23
 1213 0066 FFF7FEFF 		bl	__aeabi_uldivmod
 1214              	.LVL79:
 1215              	.L113:
 912:Drivers/STM32F4xx_HAL_Driver/Src/stm32f4xx_hal_rcc.c ****       }
 913:Drivers/STM32F4xx_HAL_Driver/Src/stm32f4xx_hal_rcc.c ****       else
 914:Drivers/STM32F4xx_HAL_Driver/Src/stm32f4xx_hal_rcc.c ****       {
 915:Drivers/STM32F4xx_HAL_Driver/Src/stm32f4xx_hal_rcc.c ****         /* HSI used as PLL clock source */
 916:Drivers/STM32F4xx_HAL_Driver/Src/stm32f4xx_hal_rcc.c ****         pllvco = (uint32_t) ((((uint64_t) HSI_VALUE * ((uint64_t) ((RCC->PLLCFGR & RCC_PLLCFGR_PLLN
 917:Drivers/STM32F4xx_HAL_Driver/Src/stm32f4xx_hal_rcc.c ****       }
 918:Drivers/STM32F4xx_HAL_Driver/Src/stm32f4xx_hal_rcc.c ****       pllp = ((((RCC->PLLCFGR & RCC_PLLCFGR_PLLP) >> RCC_PLLCFGR_PLLP_Pos) + 1U) *2U);
 1216              		.loc 1 918 7 is_stmt 1 view .LVU380
 1217              		.loc 1 918 21 is_stmt 0 view .LVU381
 1218 006a 194B     		ldr	r3, .L117
 1219 006c 5B68     		ldr	r3, [r3, #4]
 1220              		.loc 1 918 51 view .LVU382
 1221 006e C3F30143 		ubfx	r3, r3, #16, #2
 1222              		.loc 1 918 76 view .LVU383
 1223 0072 0133     		adds	r3, r3, #1
 1224              		.loc 1 918 12 view .LVU384
ARM GAS  /tmp/cc4ImuJe.s 			page 41


 1225 0074 5B00     		lsls	r3, r3, #1
 1226              	.LVL80:
 919:Drivers/STM32F4xx_HAL_Driver/Src/stm32f4xx_hal_rcc.c **** 
 920:Drivers/STM32F4xx_HAL_Driver/Src/stm32f4xx_hal_rcc.c ****       sysclockfreq = pllvco/pllp;
 1227              		.loc 1 920 7 is_stmt 1 view .LVU385
 1228              		.loc 1 920 20 is_stmt 0 view .LVU386
 1229 0076 B0FBF3F0 		udiv	r0, r0, r3
 1230              	.LVL81:
 921:Drivers/STM32F4xx_HAL_Driver/Src/stm32f4xx_hal_rcc.c ****       break;
 1231              		.loc 1 921 7 is_stmt 1 view .LVU387
 1232              	.L110:
 922:Drivers/STM32F4xx_HAL_Driver/Src/stm32f4xx_hal_rcc.c ****     }
 923:Drivers/STM32F4xx_HAL_Driver/Src/stm32f4xx_hal_rcc.c ****     default:
 924:Drivers/STM32F4xx_HAL_Driver/Src/stm32f4xx_hal_rcc.c ****     {
 925:Drivers/STM32F4xx_HAL_Driver/Src/stm32f4xx_hal_rcc.c ****       sysclockfreq = HSI_VALUE;
 926:Drivers/STM32F4xx_HAL_Driver/Src/stm32f4xx_hal_rcc.c ****       break;
 927:Drivers/STM32F4xx_HAL_Driver/Src/stm32f4xx_hal_rcc.c ****     }
 928:Drivers/STM32F4xx_HAL_Driver/Src/stm32f4xx_hal_rcc.c ****   }
 929:Drivers/STM32F4xx_HAL_Driver/Src/stm32f4xx_hal_rcc.c ****   return sysclockfreq;
 930:Drivers/STM32F4xx_HAL_Driver/Src/stm32f4xx_hal_rcc.c **** }
 1233              		.loc 1 930 1 is_stmt 0 view .LVU388
 1234 007a 08BD     		pop	{r3, pc}
 1235              	.LVL82:
 1236              	.L112:
 916:Drivers/STM32F4xx_HAL_Driver/Src/stm32f4xx_hal_rcc.c ****       }
 1237              		.loc 1 916 9 is_stmt 1 view .LVU389
 916:Drivers/STM32F4xx_HAL_Driver/Src/stm32f4xx_hal_rcc.c ****       }
 1238              		.loc 1 916 72 is_stmt 0 view .LVU390
 1239 007c 144B     		ldr	r3, .L117
 1240 007e 5868     		ldr	r0, [r3, #4]
 916:Drivers/STM32F4xx_HAL_Driver/Src/stm32f4xx_hal_rcc.c ****       }
 1241              		.loc 1 916 56 view .LVU391
 1242 0080 C0F38810 		ubfx	r0, r0, #6, #9
 916:Drivers/STM32F4xx_HAL_Driver/Src/stm32f4xx_hal_rcc.c ****       }
 1243              		.loc 1 916 53 view .LVU392
 1244 0084 4FEA401C 		lsl	ip, r0, #5
 1245 0088 BCEB000C 		subs	ip, ip, r0
 1246 008c 6EEB0E0E 		sbc	lr, lr, lr
 1247 0090 4FEA8E13 		lsl	r3, lr, #6
 1248 0094 43EA9C63 		orr	r3, r3, ip, lsr #26
 1249 0098 4FEA8C11 		lsl	r1, ip, #6
 1250 009c B1EB0C01 		subs	r1, r1, ip
 1251 00a0 63EB0E03 		sbc	r3, r3, lr
 1252 00a4 DB00     		lsls	r3, r3, #3
 1253 00a6 43EA5173 		orr	r3, r3, r1, lsr #29
 1254 00aa C900     		lsls	r1, r1, #3
 1255 00ac 11EB000C 		adds	ip, r1, r0
 1256 00b0 43F10003 		adc	r3, r3, #0
 1257 00b4 9902     		lsls	r1, r3, #10
 916:Drivers/STM32F4xx_HAL_Driver/Src/stm32f4xx_hal_rcc.c ****       }
 1258              		.loc 1 916 130 view .LVU393
 1259 00b6 0023     		movs	r3, #0
 1260 00b8 4FEA8C20 		lsl	r0, ip, #10
 1261 00bc 41EA9C51 		orr	r1, r1, ip, lsr #22
 1262 00c0 FFF7FEFF 		bl	__aeabi_uldivmod
 1263              	.LVL83:
 916:Drivers/STM32F4xx_HAL_Driver/Src/stm32f4xx_hal_rcc.c ****       }
ARM GAS  /tmp/cc4ImuJe.s 			page 42


 1264              		.loc 1 916 130 view .LVU394
 1265 00c4 D1E7     		b	.L113
 1266              	.LVL84:
 1267              	.L114:
 900:Drivers/STM32F4xx_HAL_Driver/Src/stm32f4xx_hal_rcc.c ****       break;
 1268              		.loc 1 900 20 view .LVU395
 1269 00c6 0348     		ldr	r0, .L117+4
 1270 00c8 D7E7     		b	.L110
 1271              	.L115:
 891:Drivers/STM32F4xx_HAL_Driver/Src/stm32f4xx_hal_rcc.c ****   {
 1272              		.loc 1 891 3 view .LVU396
 1273 00ca 0348     		ldr	r0, .L117+8
 1274              	.LVL85:
 929:Drivers/STM32F4xx_HAL_Driver/Src/stm32f4xx_hal_rcc.c **** }
 1275              		.loc 1 929 3 is_stmt 1 view .LVU397
 929:Drivers/STM32F4xx_HAL_Driver/Src/stm32f4xx_hal_rcc.c **** }
 1276              		.loc 1 929 10 is_stmt 0 view .LVU398
 1277 00cc D5E7     		b	.L110
 1278              	.L118:
 1279 00ce 00BF     		.align	2
 1280              	.L117:
 1281 00d0 00380240 		.word	1073887232
 1282 00d4 00127A00 		.word	8000000
 1283 00d8 0024F400 		.word	16000000
 1284              		.cfi_endproc
 1285              	.LFE136:
 1287              		.section	.text.HAL_RCC_ClockConfig,"ax",%progbits
 1288              		.align	1
 1289              		.global	HAL_RCC_ClockConfig
 1290              		.syntax unified
 1291              		.thumb
 1292              		.thumb_func
 1294              	HAL_RCC_ClockConfig:
 1295              	.LVL86:
 1296              	.LFB132:
 592:Drivers/STM32F4xx_HAL_Driver/Src/stm32f4xx_hal_rcc.c ****   uint32_t tickstart;
 1297              		.loc 1 592 1 is_stmt 1 view -0
 1298              		.cfi_startproc
 1299              		@ args = 0, pretend = 0, frame = 0
 1300              		@ frame_needed = 0, uses_anonymous_args = 0
 593:Drivers/STM32F4xx_HAL_Driver/Src/stm32f4xx_hal_rcc.c **** 
 1301              		.loc 1 593 3 view .LVU400
 596:Drivers/STM32F4xx_HAL_Driver/Src/stm32f4xx_hal_rcc.c ****   {
 1302              		.loc 1 596 3 view .LVU401
 596:Drivers/STM32F4xx_HAL_Driver/Src/stm32f4xx_hal_rcc.c ****   {
 1303              		.loc 1 596 5 is_stmt 0 view .LVU402
 1304 0000 0028     		cmp	r0, #0
 1305 0002 00F09B80 		beq	.L134
 592:Drivers/STM32F4xx_HAL_Driver/Src/stm32f4xx_hal_rcc.c ****   uint32_t tickstart;
 1306              		.loc 1 592 1 view .LVU403
 1307 0006 70B5     		push	{r4, r5, r6, lr}
 1308              		.cfi_def_cfa_offset 16
 1309              		.cfi_offset 4, -16
 1310              		.cfi_offset 5, -12
 1311              		.cfi_offset 6, -8
 1312              		.cfi_offset 14, -4
 1313 0008 0D46     		mov	r5, r1
ARM GAS  /tmp/cc4ImuJe.s 			page 43


 1314 000a 0446     		mov	r4, r0
 602:Drivers/STM32F4xx_HAL_Driver/Src/stm32f4xx_hal_rcc.c ****   assert_param(IS_FLASH_LATENCY(FLatency));
 1315              		.loc 1 602 3 is_stmt 1 view .LVU404
 603:Drivers/STM32F4xx_HAL_Driver/Src/stm32f4xx_hal_rcc.c **** 
 1316              		.loc 1 603 3 view .LVU405
 610:Drivers/STM32F4xx_HAL_Driver/Src/stm32f4xx_hal_rcc.c ****   {
 1317              		.loc 1 610 3 view .LVU406
 610:Drivers/STM32F4xx_HAL_Driver/Src/stm32f4xx_hal_rcc.c ****   {
 1318              		.loc 1 610 17 is_stmt 0 view .LVU407
 1319 000c 4F4B     		ldr	r3, .L147
 1320 000e 1B68     		ldr	r3, [r3]
 1321 0010 03F00F03 		and	r3, r3, #15
 610:Drivers/STM32F4xx_HAL_Driver/Src/stm32f4xx_hal_rcc.c ****   {
 1322              		.loc 1 610 5 view .LVU408
 1323 0014 8B42     		cmp	r3, r1
 1324 0016 08D2     		bcs	.L121
 613:Drivers/STM32F4xx_HAL_Driver/Src/stm32f4xx_hal_rcc.c **** 
 1325              		.loc 1 613 5 is_stmt 1 view .LVU409
 1326 0018 CBB2     		uxtb	r3, r1
 1327 001a 4C4A     		ldr	r2, .L147
 1328 001c 1370     		strb	r3, [r2]
 617:Drivers/STM32F4xx_HAL_Driver/Src/stm32f4xx_hal_rcc.c ****     {
 1329              		.loc 1 617 5 view .LVU410
 617:Drivers/STM32F4xx_HAL_Driver/Src/stm32f4xx_hal_rcc.c ****     {
 1330              		.loc 1 617 8 is_stmt 0 view .LVU411
 1331 001e 1368     		ldr	r3, [r2]
 1332 0020 03F00F03 		and	r3, r3, #15
 617:Drivers/STM32F4xx_HAL_Driver/Src/stm32f4xx_hal_rcc.c ****     {
 1333              		.loc 1 617 7 view .LVU412
 1334 0024 8B42     		cmp	r3, r1
 1335 0026 40F08B80 		bne	.L135
 1336              	.L121:
 624:Drivers/STM32F4xx_HAL_Driver/Src/stm32f4xx_hal_rcc.c ****   {
 1337              		.loc 1 624 3 is_stmt 1 view .LVU413
 624:Drivers/STM32F4xx_HAL_Driver/Src/stm32f4xx_hal_rcc.c ****   {
 1338              		.loc 1 624 25 is_stmt 0 view .LVU414
 1339 002a 2368     		ldr	r3, [r4]
 624:Drivers/STM32F4xx_HAL_Driver/Src/stm32f4xx_hal_rcc.c ****   {
 1340              		.loc 1 624 5 view .LVU415
 1341 002c 13F0020F 		tst	r3, #2
 1342 0030 17D0     		beq	.L122
 628:Drivers/STM32F4xx_HAL_Driver/Src/stm32f4xx_hal_rcc.c ****     {
 1343              		.loc 1 628 5 is_stmt 1 view .LVU416
 628:Drivers/STM32F4xx_HAL_Driver/Src/stm32f4xx_hal_rcc.c ****     {
 1344              		.loc 1 628 7 is_stmt 0 view .LVU417
 1345 0032 13F0040F 		tst	r3, #4
 1346 0036 04D0     		beq	.L123
 630:Drivers/STM32F4xx_HAL_Driver/Src/stm32f4xx_hal_rcc.c ****     }
 1347              		.loc 1 630 7 is_stmt 1 view .LVU418
 1348 0038 454A     		ldr	r2, .L147+4
 1349 003a 9368     		ldr	r3, [r2, #8]
 1350 003c 43F4E053 		orr	r3, r3, #7168
 1351 0040 9360     		str	r3, [r2, #8]
 1352              	.L123:
 633:Drivers/STM32F4xx_HAL_Driver/Src/stm32f4xx_hal_rcc.c ****     {
 1353              		.loc 1 633 5 view .LVU419
 633:Drivers/STM32F4xx_HAL_Driver/Src/stm32f4xx_hal_rcc.c ****     {
ARM GAS  /tmp/cc4ImuJe.s 			page 44


 1354              		.loc 1 633 27 is_stmt 0 view .LVU420
 1355 0042 2368     		ldr	r3, [r4]
 633:Drivers/STM32F4xx_HAL_Driver/Src/stm32f4xx_hal_rcc.c ****     {
 1356              		.loc 1 633 7 view .LVU421
 1357 0044 13F0080F 		tst	r3, #8
 1358 0048 04D0     		beq	.L124
 635:Drivers/STM32F4xx_HAL_Driver/Src/stm32f4xx_hal_rcc.c ****     }
 1359              		.loc 1 635 7 is_stmt 1 view .LVU422
 1360 004a 414A     		ldr	r2, .L147+4
 1361 004c 9368     		ldr	r3, [r2, #8]
 1362 004e 43F46043 		orr	r3, r3, #57344
 1363 0052 9360     		str	r3, [r2, #8]
 1364              	.L124:
 638:Drivers/STM32F4xx_HAL_Driver/Src/stm32f4xx_hal_rcc.c ****     MODIFY_REG(RCC->CFGR, RCC_CFGR_HPRE, RCC_ClkInitStruct->AHBCLKDivider);
 1365              		.loc 1 638 5 view .LVU423
 639:Drivers/STM32F4xx_HAL_Driver/Src/stm32f4xx_hal_rcc.c ****   }
 1366              		.loc 1 639 5 view .LVU424
 1367 0054 3E4A     		ldr	r2, .L147+4
 1368 0056 9368     		ldr	r3, [r2, #8]
 1369 0058 23F0F003 		bic	r3, r3, #240
 1370 005c A168     		ldr	r1, [r4, #8]
 1371              	.LVL87:
 639:Drivers/STM32F4xx_HAL_Driver/Src/stm32f4xx_hal_rcc.c ****   }
 1372              		.loc 1 639 5 is_stmt 0 view .LVU425
 1373 005e 0B43     		orrs	r3, r3, r1
 1374 0060 9360     		str	r3, [r2, #8]
 1375              	.L122:
 643:Drivers/STM32F4xx_HAL_Driver/Src/stm32f4xx_hal_rcc.c ****   {
 1376              		.loc 1 643 3 is_stmt 1 view .LVU426
 643:Drivers/STM32F4xx_HAL_Driver/Src/stm32f4xx_hal_rcc.c ****   {
 1377              		.loc 1 643 25 is_stmt 0 view .LVU427
 1378 0062 2368     		ldr	r3, [r4]
 643:Drivers/STM32F4xx_HAL_Driver/Src/stm32f4xx_hal_rcc.c ****   {
 1379              		.loc 1 643 5 view .LVU428
 1380 0064 13F0010F 		tst	r3, #1
 1381 0068 32D0     		beq	.L125
 645:Drivers/STM32F4xx_HAL_Driver/Src/stm32f4xx_hal_rcc.c **** 
 1382              		.loc 1 645 5 is_stmt 1 view .LVU429
 648:Drivers/STM32F4xx_HAL_Driver/Src/stm32f4xx_hal_rcc.c ****     {
 1383              		.loc 1 648 5 view .LVU430
 648:Drivers/STM32F4xx_HAL_Driver/Src/stm32f4xx_hal_rcc.c ****     {
 1384              		.loc 1 648 25 is_stmt 0 view .LVU431
 1385 006a 6368     		ldr	r3, [r4, #4]
 648:Drivers/STM32F4xx_HAL_Driver/Src/stm32f4xx_hal_rcc.c ****     {
 1386              		.loc 1 648 7 view .LVU432
 1387 006c 012B     		cmp	r3, #1
 1388 006e 21D0     		beq	.L145
 657:Drivers/STM32F4xx_HAL_Driver/Src/stm32f4xx_hal_rcc.c ****             (RCC_ClkInitStruct->SYSCLKSource == RCC_SYSCLKSOURCE_PLLRCLK))
 1389              		.loc 1 657 10 is_stmt 1 view .LVU433
 657:Drivers/STM32F4xx_HAL_Driver/Src/stm32f4xx_hal_rcc.c ****             (RCC_ClkInitStruct->SYSCLKSource == RCC_SYSCLKSOURCE_PLLRCLK))
 1390              		.loc 1 657 76 is_stmt 0 view .LVU434
 1391 0070 9A1E     		subs	r2, r3, #2
 657:Drivers/STM32F4xx_HAL_Driver/Src/stm32f4xx_hal_rcc.c ****             (RCC_ClkInitStruct->SYSCLKSource == RCC_SYSCLKSOURCE_PLLRCLK))
 1392              		.loc 1 657 12 view .LVU435
 1393 0072 012A     		cmp	r2, #1
 1394 0074 25D9     		bls	.L146
 670:Drivers/STM32F4xx_HAL_Driver/Src/stm32f4xx_hal_rcc.c ****       {
ARM GAS  /tmp/cc4ImuJe.s 			page 45


 1395              		.loc 1 670 7 is_stmt 1 view .LVU436
 670:Drivers/STM32F4xx_HAL_Driver/Src/stm32f4xx_hal_rcc.c ****       {
 1396              		.loc 1 670 10 is_stmt 0 view .LVU437
 1397 0076 364A     		ldr	r2, .L147+4
 1398 0078 1268     		ldr	r2, [r2]
 670:Drivers/STM32F4xx_HAL_Driver/Src/stm32f4xx_hal_rcc.c ****       {
 1399              		.loc 1 670 9 view .LVU438
 1400 007a 12F0020F 		tst	r2, #2
 1401 007e 61D0     		beq	.L138
 1402              	.L127:
 676:Drivers/STM32F4xx_HAL_Driver/Src/stm32f4xx_hal_rcc.c **** 
 1403              		.loc 1 676 5 is_stmt 1 view .LVU439
 1404 0080 3349     		ldr	r1, .L147+4
 1405 0082 8A68     		ldr	r2, [r1, #8]
 1406 0084 22F00302 		bic	r2, r2, #3
 1407 0088 1343     		orrs	r3, r3, r2
 1408 008a 8B60     		str	r3, [r1, #8]
 679:Drivers/STM32F4xx_HAL_Driver/Src/stm32f4xx_hal_rcc.c **** 
 1409              		.loc 1 679 5 view .LVU440
 679:Drivers/STM32F4xx_HAL_Driver/Src/stm32f4xx_hal_rcc.c **** 
 1410              		.loc 1 679 17 is_stmt 0 view .LVU441
 1411 008c FFF7FEFF 		bl	HAL_GetTick
 1412              	.LVL88:
 679:Drivers/STM32F4xx_HAL_Driver/Src/stm32f4xx_hal_rcc.c **** 
 1413              		.loc 1 679 17 view .LVU442
 1414 0090 0646     		mov	r6, r0
 1415              	.LVL89:
 681:Drivers/STM32F4xx_HAL_Driver/Src/stm32f4xx_hal_rcc.c ****     {
 1416              		.loc 1 681 5 is_stmt 1 view .LVU443
 1417              	.L129:
 681:Drivers/STM32F4xx_HAL_Driver/Src/stm32f4xx_hal_rcc.c ****     {
 1418              		.loc 1 681 42 view .LVU444
 681:Drivers/STM32F4xx_HAL_Driver/Src/stm32f4xx_hal_rcc.c ****     {
 1419              		.loc 1 681 12 is_stmt 0 view .LVU445
 1420 0092 2F4B     		ldr	r3, .L147+4
 1421 0094 9B68     		ldr	r3, [r3, #8]
 1422 0096 03F00C03 		and	r3, r3, #12
 681:Drivers/STM32F4xx_HAL_Driver/Src/stm32f4xx_hal_rcc.c ****     {
 1423              		.loc 1 681 63 view .LVU446
 1424 009a 6268     		ldr	r2, [r4, #4]
 681:Drivers/STM32F4xx_HAL_Driver/Src/stm32f4xx_hal_rcc.c ****     {
 1425              		.loc 1 681 42 view .LVU447
 1426 009c B3EB820F 		cmp	r3, r2, lsl #2
 1427 00a0 16D0     		beq	.L125
 683:Drivers/STM32F4xx_HAL_Driver/Src/stm32f4xx_hal_rcc.c ****       {
 1428              		.loc 1 683 7 is_stmt 1 view .LVU448
 683:Drivers/STM32F4xx_HAL_Driver/Src/stm32f4xx_hal_rcc.c ****       {
 1429              		.loc 1 683 12 is_stmt 0 view .LVU449
 1430 00a2 FFF7FEFF 		bl	HAL_GetTick
 1431              	.LVL90:
 683:Drivers/STM32F4xx_HAL_Driver/Src/stm32f4xx_hal_rcc.c ****       {
 1432              		.loc 1 683 26 discriminator 1 view .LVU450
 1433 00a6 801B     		subs	r0, r0, r6
 683:Drivers/STM32F4xx_HAL_Driver/Src/stm32f4xx_hal_rcc.c ****       {
 1434              		.loc 1 683 10 discriminator 1 view .LVU451
 1435 00a8 41F28833 		movw	r3, #5000
 1436 00ac 9842     		cmp	r0, r3
ARM GAS  /tmp/cc4ImuJe.s 			page 46


 1437 00ae F0D9     		bls	.L129
 685:Drivers/STM32F4xx_HAL_Driver/Src/stm32f4xx_hal_rcc.c ****       }
 1438              		.loc 1 685 16 view .LVU452
 1439 00b0 0320     		movs	r0, #3
 1440 00b2 42E0     		b	.L120
 1441              	.LVL91:
 1442              	.L145:
 651:Drivers/STM32F4xx_HAL_Driver/Src/stm32f4xx_hal_rcc.c ****       {
 1443              		.loc 1 651 7 is_stmt 1 view .LVU453
 651:Drivers/STM32F4xx_HAL_Driver/Src/stm32f4xx_hal_rcc.c ****       {
 1444              		.loc 1 651 10 is_stmt 0 view .LVU454
 1445 00b4 264A     		ldr	r2, .L147+4
 1446 00b6 1268     		ldr	r2, [r2]
 651:Drivers/STM32F4xx_HAL_Driver/Src/stm32f4xx_hal_rcc.c ****       {
 1447              		.loc 1 651 9 view .LVU455
 1448 00b8 12F4003F 		tst	r2, #131072
 1449 00bc E0D1     		bne	.L127
 653:Drivers/STM32F4xx_HAL_Driver/Src/stm32f4xx_hal_rcc.c ****       }
 1450              		.loc 1 653 16 view .LVU456
 1451 00be 0120     		movs	r0, #1
 1452              	.LVL92:
 653:Drivers/STM32F4xx_HAL_Driver/Src/stm32f4xx_hal_rcc.c ****       }
 1453              		.loc 1 653 16 view .LVU457
 1454 00c0 3BE0     		b	.L120
 1455              	.LVL93:
 1456              	.L146:
 661:Drivers/STM32F4xx_HAL_Driver/Src/stm32f4xx_hal_rcc.c ****       {
 1457              		.loc 1 661 7 is_stmt 1 view .LVU458
 661:Drivers/STM32F4xx_HAL_Driver/Src/stm32f4xx_hal_rcc.c ****       {
 1458              		.loc 1 661 10 is_stmt 0 view .LVU459
 1459 00c2 234A     		ldr	r2, .L147+4
 1460 00c4 1268     		ldr	r2, [r2]
 661:Drivers/STM32F4xx_HAL_Driver/Src/stm32f4xx_hal_rcc.c ****       {
 1461              		.loc 1 661 9 view .LVU460
 1462 00c6 12F0007F 		tst	r2, #33554432
 1463 00ca D9D1     		bne	.L127
 663:Drivers/STM32F4xx_HAL_Driver/Src/stm32f4xx_hal_rcc.c ****       }
 1464              		.loc 1 663 16 view .LVU461
 1465 00cc 0120     		movs	r0, #1
 1466              	.LVL94:
 663:Drivers/STM32F4xx_HAL_Driver/Src/stm32f4xx_hal_rcc.c ****       }
 1467              		.loc 1 663 16 view .LVU462
 1468 00ce 34E0     		b	.L120
 1469              	.L125:
 691:Drivers/STM32F4xx_HAL_Driver/Src/stm32f4xx_hal_rcc.c ****   {
 1470              		.loc 1 691 3 is_stmt 1 view .LVU463
 691:Drivers/STM32F4xx_HAL_Driver/Src/stm32f4xx_hal_rcc.c ****   {
 1471              		.loc 1 691 17 is_stmt 0 view .LVU464
 1472 00d0 1E4B     		ldr	r3, .L147
 1473 00d2 1B68     		ldr	r3, [r3]
 1474 00d4 03F00F03 		and	r3, r3, #15
 691:Drivers/STM32F4xx_HAL_Driver/Src/stm32f4xx_hal_rcc.c ****   {
 1475              		.loc 1 691 5 view .LVU465
 1476 00d8 AB42     		cmp	r3, r5
 1477 00da 07D9     		bls	.L131
 694:Drivers/STM32F4xx_HAL_Driver/Src/stm32f4xx_hal_rcc.c **** 
 1478              		.loc 1 694 5 is_stmt 1 view .LVU466
ARM GAS  /tmp/cc4ImuJe.s 			page 47


 1479 00dc EAB2     		uxtb	r2, r5
 1480 00de 1B4B     		ldr	r3, .L147
 1481 00e0 1A70     		strb	r2, [r3]
 698:Drivers/STM32F4xx_HAL_Driver/Src/stm32f4xx_hal_rcc.c ****     {
 1482              		.loc 1 698 5 view .LVU467
 698:Drivers/STM32F4xx_HAL_Driver/Src/stm32f4xx_hal_rcc.c ****     {
 1483              		.loc 1 698 8 is_stmt 0 view .LVU468
 1484 00e2 1B68     		ldr	r3, [r3]
 1485 00e4 03F00F03 		and	r3, r3, #15
 698:Drivers/STM32F4xx_HAL_Driver/Src/stm32f4xx_hal_rcc.c ****     {
 1486              		.loc 1 698 7 view .LVU469
 1487 00e8 AB42     		cmp	r3, r5
 1488 00ea 2DD1     		bne	.L140
 1489              	.L131:
 705:Drivers/STM32F4xx_HAL_Driver/Src/stm32f4xx_hal_rcc.c ****   {
 1490              		.loc 1 705 3 is_stmt 1 view .LVU470
 705:Drivers/STM32F4xx_HAL_Driver/Src/stm32f4xx_hal_rcc.c ****   {
 1491              		.loc 1 705 25 is_stmt 0 view .LVU471
 1492 00ec 2368     		ldr	r3, [r4]
 705:Drivers/STM32F4xx_HAL_Driver/Src/stm32f4xx_hal_rcc.c ****   {
 1493              		.loc 1 705 5 view .LVU472
 1494 00ee 13F0040F 		tst	r3, #4
 1495 00f2 06D0     		beq	.L132
 707:Drivers/STM32F4xx_HAL_Driver/Src/stm32f4xx_hal_rcc.c ****     MODIFY_REG(RCC->CFGR, RCC_CFGR_PPRE1, RCC_ClkInitStruct->APB1CLKDivider);
 1496              		.loc 1 707 5 is_stmt 1 view .LVU473
 708:Drivers/STM32F4xx_HAL_Driver/Src/stm32f4xx_hal_rcc.c ****   }
 1497              		.loc 1 708 5 view .LVU474
 1498 00f4 164A     		ldr	r2, .L147+4
 1499 00f6 9368     		ldr	r3, [r2, #8]
 1500 00f8 23F4E053 		bic	r3, r3, #7168
 1501 00fc E168     		ldr	r1, [r4, #12]
 1502 00fe 0B43     		orrs	r3, r3, r1
 1503 0100 9360     		str	r3, [r2, #8]
 1504              	.L132:
 712:Drivers/STM32F4xx_HAL_Driver/Src/stm32f4xx_hal_rcc.c ****   {
 1505              		.loc 1 712 3 view .LVU475
 712:Drivers/STM32F4xx_HAL_Driver/Src/stm32f4xx_hal_rcc.c ****   {
 1506              		.loc 1 712 25 is_stmt 0 view .LVU476
 1507 0102 2368     		ldr	r3, [r4]
 712:Drivers/STM32F4xx_HAL_Driver/Src/stm32f4xx_hal_rcc.c ****   {
 1508              		.loc 1 712 5 view .LVU477
 1509 0104 13F0080F 		tst	r3, #8
 1510 0108 07D0     		beq	.L133
 714:Drivers/STM32F4xx_HAL_Driver/Src/stm32f4xx_hal_rcc.c ****     MODIFY_REG(RCC->CFGR, RCC_CFGR_PPRE2, ((RCC_ClkInitStruct->APB2CLKDivider) << 3U));
 1511              		.loc 1 714 5 is_stmt 1 view .LVU478
 715:Drivers/STM32F4xx_HAL_Driver/Src/stm32f4xx_hal_rcc.c ****   }
 1512              		.loc 1 715 5 view .LVU479
 1513 010a 114A     		ldr	r2, .L147+4
 1514 010c 9368     		ldr	r3, [r2, #8]
 1515 010e 23F46043 		bic	r3, r3, #57344
 1516 0112 2169     		ldr	r1, [r4, #16]
 1517 0114 43EAC103 		orr	r3, r3, r1, lsl #3
 1518 0118 9360     		str	r3, [r2, #8]
 1519              	.L133:
 719:Drivers/STM32F4xx_HAL_Driver/Src/stm32f4xx_hal_rcc.c **** 
 1520              		.loc 1 719 3 view .LVU480
 719:Drivers/STM32F4xx_HAL_Driver/Src/stm32f4xx_hal_rcc.c **** 
ARM GAS  /tmp/cc4ImuJe.s 			page 48


 1521              		.loc 1 719 21 is_stmt 0 view .LVU481
 1522 011a FFF7FEFF 		bl	HAL_RCC_GetSysClockFreq
 1523              	.LVL95:
 719:Drivers/STM32F4xx_HAL_Driver/Src/stm32f4xx_hal_rcc.c **** 
 1524              		.loc 1 719 68 discriminator 1 view .LVU482
 1525 011e 0C4B     		ldr	r3, .L147+4
 1526 0120 9B68     		ldr	r3, [r3, #8]
 719:Drivers/STM32F4xx_HAL_Driver/Src/stm32f4xx_hal_rcc.c **** 
 1527              		.loc 1 719 91 discriminator 1 view .LVU483
 1528 0122 C3F30313 		ubfx	r3, r3, #4, #4
 719:Drivers/STM32F4xx_HAL_Driver/Src/stm32f4xx_hal_rcc.c **** 
 1529              		.loc 1 719 63 discriminator 1 view .LVU484
 1530 0126 0B4A     		ldr	r2, .L147+8
 1531 0128 D35C     		ldrb	r3, [r2, r3]	@ zero_extendqisi2
 719:Drivers/STM32F4xx_HAL_Driver/Src/stm32f4xx_hal_rcc.c **** 
 1532              		.loc 1 719 47 discriminator 1 view .LVU485
 1533 012a D840     		lsrs	r0, r0, r3
 719:Drivers/STM32F4xx_HAL_Driver/Src/stm32f4xx_hal_rcc.c **** 
 1534              		.loc 1 719 19 discriminator 1 view .LVU486
 1535 012c 0A4B     		ldr	r3, .L147+12
 1536 012e 1860     		str	r0, [r3]
 722:Drivers/STM32F4xx_HAL_Driver/Src/stm32f4xx_hal_rcc.c **** 
 1537              		.loc 1 722 3 is_stmt 1 view .LVU487
 1538 0130 0A4B     		ldr	r3, .L147+16
 1539 0132 1868     		ldr	r0, [r3]
 1540 0134 FFF7FEFF 		bl	HAL_InitTick
 1541              	.LVL96:
 724:Drivers/STM32F4xx_HAL_Driver/Src/stm32f4xx_hal_rcc.c **** }
 1542              		.loc 1 724 3 view .LVU488
 724:Drivers/STM32F4xx_HAL_Driver/Src/stm32f4xx_hal_rcc.c **** }
 1543              		.loc 1 724 10 is_stmt 0 view .LVU489
 1544 0138 0020     		movs	r0, #0
 1545              	.L120:
 725:Drivers/STM32F4xx_HAL_Driver/Src/stm32f4xx_hal_rcc.c **** 
 1546              		.loc 1 725 1 view .LVU490
 1547 013a 70BD     		pop	{r4, r5, r6, pc}
 1548              	.LVL97:
 1549              	.L134:
 1550              		.cfi_def_cfa_offset 0
 1551              		.cfi_restore 4
 1552              		.cfi_restore 5
 1553              		.cfi_restore 6
 1554              		.cfi_restore 14
 598:Drivers/STM32F4xx_HAL_Driver/Src/stm32f4xx_hal_rcc.c ****   }
 1555              		.loc 1 598 12 view .LVU491
 1556 013c 0120     		movs	r0, #1
 1557              	.LVL98:
 725:Drivers/STM32F4xx_HAL_Driver/Src/stm32f4xx_hal_rcc.c **** 
 1558              		.loc 1 725 1 view .LVU492
 1559 013e 7047     		bx	lr
 1560              	.LVL99:
 1561              	.L135:
 1562              		.cfi_def_cfa_offset 16
 1563              		.cfi_offset 4, -16
 1564              		.cfi_offset 5, -12
 1565              		.cfi_offset 6, -8
 1566              		.cfi_offset 14, -4
ARM GAS  /tmp/cc4ImuJe.s 			page 49


 619:Drivers/STM32F4xx_HAL_Driver/Src/stm32f4xx_hal_rcc.c ****     }
 1567              		.loc 1 619 14 view .LVU493
 1568 0140 0120     		movs	r0, #1
 1569              	.LVL100:
 619:Drivers/STM32F4xx_HAL_Driver/Src/stm32f4xx_hal_rcc.c ****     }
 1570              		.loc 1 619 14 view .LVU494
 1571 0142 FAE7     		b	.L120
 1572              	.LVL101:
 1573              	.L138:
 672:Drivers/STM32F4xx_HAL_Driver/Src/stm32f4xx_hal_rcc.c ****       }
 1574              		.loc 1 672 16 view .LVU495
 1575 0144 0120     		movs	r0, #1
 1576              	.LVL102:
 672:Drivers/STM32F4xx_HAL_Driver/Src/stm32f4xx_hal_rcc.c ****       }
 1577              		.loc 1 672 16 view .LVU496
 1578 0146 F8E7     		b	.L120
 1579              	.L140:
 700:Drivers/STM32F4xx_HAL_Driver/Src/stm32f4xx_hal_rcc.c ****     }
 1580              		.loc 1 700 14 view .LVU497
 1581 0148 0120     		movs	r0, #1
 1582 014a F6E7     		b	.L120
 1583              	.L148:
 1584              		.align	2
 1585              	.L147:
 1586 014c 003C0240 		.word	1073888256
 1587 0150 00380240 		.word	1073887232
 1588 0154 00000000 		.word	AHBPrescTable
 1589 0158 00000000 		.word	SystemCoreClock
 1590 015c 00000000 		.word	uwTickPrio
 1591              		.cfi_endproc
 1592              	.LFE132:
 1594              		.section	.text.HAL_RCC_GetHCLKFreq,"ax",%progbits
 1595              		.align	1
 1596              		.global	HAL_RCC_GetHCLKFreq
 1597              		.syntax unified
 1598              		.thumb
 1599              		.thumb_func
 1601              	HAL_RCC_GetHCLKFreq:
 1602              	.LFB137:
 931:Drivers/STM32F4xx_HAL_Driver/Src/stm32f4xx_hal_rcc.c **** 
 932:Drivers/STM32F4xx_HAL_Driver/Src/stm32f4xx_hal_rcc.c **** /**
 933:Drivers/STM32F4xx_HAL_Driver/Src/stm32f4xx_hal_rcc.c ****   * @brief  Returns the HCLK frequency
 934:Drivers/STM32F4xx_HAL_Driver/Src/stm32f4xx_hal_rcc.c ****   * @note   Each time HCLK changes, this function must be called to update the
 935:Drivers/STM32F4xx_HAL_Driver/Src/stm32f4xx_hal_rcc.c ****   *         right HCLK value. Otherwise, any configuration based on this function will be incorrect
 936:Drivers/STM32F4xx_HAL_Driver/Src/stm32f4xx_hal_rcc.c ****   *
 937:Drivers/STM32F4xx_HAL_Driver/Src/stm32f4xx_hal_rcc.c ****   * @note   The SystemCoreClock CMSIS variable is used to store System Clock Frequency
 938:Drivers/STM32F4xx_HAL_Driver/Src/stm32f4xx_hal_rcc.c ****   *         and updated within this function
 939:Drivers/STM32F4xx_HAL_Driver/Src/stm32f4xx_hal_rcc.c ****   * @retval HCLK frequency
 940:Drivers/STM32F4xx_HAL_Driver/Src/stm32f4xx_hal_rcc.c ****   */
 941:Drivers/STM32F4xx_HAL_Driver/Src/stm32f4xx_hal_rcc.c **** uint32_t HAL_RCC_GetHCLKFreq(void)
 942:Drivers/STM32F4xx_HAL_Driver/Src/stm32f4xx_hal_rcc.c **** {
 1603              		.loc 1 942 1 is_stmt 1 view -0
 1604              		.cfi_startproc
 1605              		@ args = 0, pretend = 0, frame = 0
 1606              		@ frame_needed = 0, uses_anonymous_args = 0
 1607              		@ link register save eliminated.
 943:Drivers/STM32F4xx_HAL_Driver/Src/stm32f4xx_hal_rcc.c ****   return SystemCoreClock;
ARM GAS  /tmp/cc4ImuJe.s 			page 50


 1608              		.loc 1 943 3 view .LVU499
 944:Drivers/STM32F4xx_HAL_Driver/Src/stm32f4xx_hal_rcc.c **** }
 1609              		.loc 1 944 1 is_stmt 0 view .LVU500
 1610 0000 014B     		ldr	r3, .L150
 1611 0002 1868     		ldr	r0, [r3]
 1612 0004 7047     		bx	lr
 1613              	.L151:
 1614 0006 00BF     		.align	2
 1615              	.L150:
 1616 0008 00000000 		.word	SystemCoreClock
 1617              		.cfi_endproc
 1618              	.LFE137:
 1620              		.section	.text.HAL_RCC_GetPCLK1Freq,"ax",%progbits
 1621              		.align	1
 1622              		.global	HAL_RCC_GetPCLK1Freq
 1623              		.syntax unified
 1624              		.thumb
 1625              		.thumb_func
 1627              	HAL_RCC_GetPCLK1Freq:
 1628              	.LFB138:
 945:Drivers/STM32F4xx_HAL_Driver/Src/stm32f4xx_hal_rcc.c **** 
 946:Drivers/STM32F4xx_HAL_Driver/Src/stm32f4xx_hal_rcc.c **** /**
 947:Drivers/STM32F4xx_HAL_Driver/Src/stm32f4xx_hal_rcc.c ****   * @brief  Returns the PCLK1 frequency
 948:Drivers/STM32F4xx_HAL_Driver/Src/stm32f4xx_hal_rcc.c ****   * @note   Each time PCLK1 changes, this function must be called to update the
 949:Drivers/STM32F4xx_HAL_Driver/Src/stm32f4xx_hal_rcc.c ****   *         right PCLK1 value. Otherwise, any configuration based on this function will be incorrec
 950:Drivers/STM32F4xx_HAL_Driver/Src/stm32f4xx_hal_rcc.c ****   * @retval PCLK1 frequency
 951:Drivers/STM32F4xx_HAL_Driver/Src/stm32f4xx_hal_rcc.c ****   */
 952:Drivers/STM32F4xx_HAL_Driver/Src/stm32f4xx_hal_rcc.c **** uint32_t HAL_RCC_GetPCLK1Freq(void)
 953:Drivers/STM32F4xx_HAL_Driver/Src/stm32f4xx_hal_rcc.c **** {
 1629              		.loc 1 953 1 is_stmt 1 view -0
 1630              		.cfi_startproc
 1631              		@ args = 0, pretend = 0, frame = 0
 1632              		@ frame_needed = 0, uses_anonymous_args = 0
 1633 0000 08B5     		push	{r3, lr}
 1634              		.cfi_def_cfa_offset 8
 1635              		.cfi_offset 3, -8
 1636              		.cfi_offset 14, -4
 954:Drivers/STM32F4xx_HAL_Driver/Src/stm32f4xx_hal_rcc.c ****   /* Get HCLK source and Compute PCLK1 frequency ---------------------------*/
 955:Drivers/STM32F4xx_HAL_Driver/Src/stm32f4xx_hal_rcc.c ****   return (HAL_RCC_GetHCLKFreq() >> APBPrescTable[(RCC->CFGR & RCC_CFGR_PPRE1)>> RCC_CFGR_PPRE1_Pos]
 1637              		.loc 1 955 3 view .LVU502
 1638              		.loc 1 955 11 is_stmt 0 view .LVU503
 1639 0002 FFF7FEFF 		bl	HAL_RCC_GetHCLKFreq
 1640              	.LVL103:
 1641              		.loc 1 955 54 discriminator 1 view .LVU504
 1642 0006 044B     		ldr	r3, .L154
 1643 0008 9B68     		ldr	r3, [r3, #8]
 1644              		.loc 1 955 78 discriminator 1 view .LVU505
 1645 000a C3F38223 		ubfx	r3, r3, #10, #3
 1646              		.loc 1 955 49 discriminator 1 view .LVU506
 1647 000e 034A     		ldr	r2, .L154+4
 1648 0010 D35C     		ldrb	r3, [r2, r3]	@ zero_extendqisi2
 956:Drivers/STM32F4xx_HAL_Driver/Src/stm32f4xx_hal_rcc.c **** }
 1649              		.loc 1 956 1 view .LVU507
 1650 0012 D840     		lsrs	r0, r0, r3
 1651 0014 08BD     		pop	{r3, pc}
 1652              	.L155:
 1653 0016 00BF     		.align	2
ARM GAS  /tmp/cc4ImuJe.s 			page 51


 1654              	.L154:
 1655 0018 00380240 		.word	1073887232
 1656 001c 00000000 		.word	APBPrescTable
 1657              		.cfi_endproc
 1658              	.LFE138:
 1660              		.section	.text.HAL_RCC_GetPCLK2Freq,"ax",%progbits
 1661              		.align	1
 1662              		.global	HAL_RCC_GetPCLK2Freq
 1663              		.syntax unified
 1664              		.thumb
 1665              		.thumb_func
 1667              	HAL_RCC_GetPCLK2Freq:
 1668              	.LFB139:
 957:Drivers/STM32F4xx_HAL_Driver/Src/stm32f4xx_hal_rcc.c **** 
 958:Drivers/STM32F4xx_HAL_Driver/Src/stm32f4xx_hal_rcc.c **** /**
 959:Drivers/STM32F4xx_HAL_Driver/Src/stm32f4xx_hal_rcc.c ****   * @brief  Returns the PCLK2 frequency
 960:Drivers/STM32F4xx_HAL_Driver/Src/stm32f4xx_hal_rcc.c ****   * @note   Each time PCLK2 changes, this function must be called to update the
 961:Drivers/STM32F4xx_HAL_Driver/Src/stm32f4xx_hal_rcc.c ****   *         right PCLK2 value. Otherwise, any configuration based on this function will be incorrec
 962:Drivers/STM32F4xx_HAL_Driver/Src/stm32f4xx_hal_rcc.c ****   * @retval PCLK2 frequency
 963:Drivers/STM32F4xx_HAL_Driver/Src/stm32f4xx_hal_rcc.c ****   */
 964:Drivers/STM32F4xx_HAL_Driver/Src/stm32f4xx_hal_rcc.c **** uint32_t HAL_RCC_GetPCLK2Freq(void)
 965:Drivers/STM32F4xx_HAL_Driver/Src/stm32f4xx_hal_rcc.c **** {
 1669              		.loc 1 965 1 is_stmt 1 view -0
 1670              		.cfi_startproc
 1671              		@ args = 0, pretend = 0, frame = 0
 1672              		@ frame_needed = 0, uses_anonymous_args = 0
 1673 0000 08B5     		push	{r3, lr}
 1674              		.cfi_def_cfa_offset 8
 1675              		.cfi_offset 3, -8
 1676              		.cfi_offset 14, -4
 966:Drivers/STM32F4xx_HAL_Driver/Src/stm32f4xx_hal_rcc.c ****   /* Get HCLK source and Compute PCLK2 frequency ---------------------------*/
 967:Drivers/STM32F4xx_HAL_Driver/Src/stm32f4xx_hal_rcc.c ****   return (HAL_RCC_GetHCLKFreq()>> APBPrescTable[(RCC->CFGR & RCC_CFGR_PPRE2)>> RCC_CFGR_PPRE2_Pos])
 1677              		.loc 1 967 3 view .LVU509
 1678              		.loc 1 967 11 is_stmt 0 view .LVU510
 1679 0002 FFF7FEFF 		bl	HAL_RCC_GetHCLKFreq
 1680              	.LVL104:
 1681              		.loc 1 967 53 discriminator 1 view .LVU511
 1682 0006 044B     		ldr	r3, .L158
 1683 0008 9B68     		ldr	r3, [r3, #8]
 1684              		.loc 1 967 77 discriminator 1 view .LVU512
 1685 000a C3F34233 		ubfx	r3, r3, #13, #3
 1686              		.loc 1 967 48 discriminator 1 view .LVU513
 1687 000e 034A     		ldr	r2, .L158+4
 1688 0010 D35C     		ldrb	r3, [r2, r3]	@ zero_extendqisi2
 968:Drivers/STM32F4xx_HAL_Driver/Src/stm32f4xx_hal_rcc.c **** }
 1689              		.loc 1 968 1 view .LVU514
 1690 0012 D840     		lsrs	r0, r0, r3
 1691 0014 08BD     		pop	{r3, pc}
 1692              	.L159:
 1693 0016 00BF     		.align	2
 1694              	.L158:
 1695 0018 00380240 		.word	1073887232
 1696 001c 00000000 		.word	APBPrescTable
 1697              		.cfi_endproc
 1698              	.LFE139:
 1700              		.section	.text.HAL_RCC_GetOscConfig,"ax",%progbits
 1701              		.align	1
ARM GAS  /tmp/cc4ImuJe.s 			page 52


 1702              		.weak	HAL_RCC_GetOscConfig
 1703              		.syntax unified
 1704              		.thumb
 1705              		.thumb_func
 1707              	HAL_RCC_GetOscConfig:
 1708              	.LVL105:
 1709              	.LFB140:
 969:Drivers/STM32F4xx_HAL_Driver/Src/stm32f4xx_hal_rcc.c **** 
 970:Drivers/STM32F4xx_HAL_Driver/Src/stm32f4xx_hal_rcc.c **** /**
 971:Drivers/STM32F4xx_HAL_Driver/Src/stm32f4xx_hal_rcc.c ****   * @brief  Configures the RCC_OscInitStruct according to the internal
 972:Drivers/STM32F4xx_HAL_Driver/Src/stm32f4xx_hal_rcc.c ****   * RCC configuration registers.
 973:Drivers/STM32F4xx_HAL_Driver/Src/stm32f4xx_hal_rcc.c ****   * @param  RCC_OscInitStruct pointer to an RCC_OscInitTypeDef structure that
 974:Drivers/STM32F4xx_HAL_Driver/Src/stm32f4xx_hal_rcc.c ****   * will be configured.
 975:Drivers/STM32F4xx_HAL_Driver/Src/stm32f4xx_hal_rcc.c ****   * @retval None
 976:Drivers/STM32F4xx_HAL_Driver/Src/stm32f4xx_hal_rcc.c ****   */
 977:Drivers/STM32F4xx_HAL_Driver/Src/stm32f4xx_hal_rcc.c **** __weak void HAL_RCC_GetOscConfig(RCC_OscInitTypeDef  *RCC_OscInitStruct)
 978:Drivers/STM32F4xx_HAL_Driver/Src/stm32f4xx_hal_rcc.c **** {
 1710              		.loc 1 978 1 is_stmt 1 view -0
 1711              		.cfi_startproc
 1712              		@ args = 0, pretend = 0, frame = 0
 1713              		@ frame_needed = 0, uses_anonymous_args = 0
 1714              		@ link register save eliminated.
 979:Drivers/STM32F4xx_HAL_Driver/Src/stm32f4xx_hal_rcc.c ****   /* Set all possible values for the Oscillator type parameter ---------------*/
 980:Drivers/STM32F4xx_HAL_Driver/Src/stm32f4xx_hal_rcc.c ****   RCC_OscInitStruct->OscillatorType = RCC_OSCILLATORTYPE_HSE | RCC_OSCILLATORTYPE_HSI | RCC_OSCILLA
 1715              		.loc 1 980 3 view .LVU516
 1716              		.loc 1 980 37 is_stmt 0 view .LVU517
 1717 0000 0F23     		movs	r3, #15
 1718 0002 0360     		str	r3, [r0]
 981:Drivers/STM32F4xx_HAL_Driver/Src/stm32f4xx_hal_rcc.c **** 
 982:Drivers/STM32F4xx_HAL_Driver/Src/stm32f4xx_hal_rcc.c ****   /* Get the HSE configuration -----------------------------------------------*/
 983:Drivers/STM32F4xx_HAL_Driver/Src/stm32f4xx_hal_rcc.c ****   if((RCC->CR &RCC_CR_HSEBYP) == RCC_CR_HSEBYP)
 1719              		.loc 1 983 3 is_stmt 1 view .LVU518
 1720              		.loc 1 983 10 is_stmt 0 view .LVU519
 1721 0004 304B     		ldr	r3, .L173
 1722 0006 1B68     		ldr	r3, [r3]
 1723              		.loc 1 983 5 view .LVU520
 1724 0008 13F4802F 		tst	r3, #262144
 1725 000c 3BD0     		beq	.L161
 984:Drivers/STM32F4xx_HAL_Driver/Src/stm32f4xx_hal_rcc.c ****   {
 985:Drivers/STM32F4xx_HAL_Driver/Src/stm32f4xx_hal_rcc.c ****     RCC_OscInitStruct->HSEState = RCC_HSE_BYPASS;
 1726              		.loc 1 985 5 is_stmt 1 view .LVU521
 1727              		.loc 1 985 33 is_stmt 0 view .LVU522
 1728 000e 4FF4A023 		mov	r3, #327680
 1729 0012 4360     		str	r3, [r0, #4]
 1730              	.L162:
 986:Drivers/STM32F4xx_HAL_Driver/Src/stm32f4xx_hal_rcc.c ****   }
 987:Drivers/STM32F4xx_HAL_Driver/Src/stm32f4xx_hal_rcc.c ****   else if((RCC->CR &RCC_CR_HSEON) == RCC_CR_HSEON)
 988:Drivers/STM32F4xx_HAL_Driver/Src/stm32f4xx_hal_rcc.c ****   {
 989:Drivers/STM32F4xx_HAL_Driver/Src/stm32f4xx_hal_rcc.c ****     RCC_OscInitStruct->HSEState = RCC_HSE_ON;
 990:Drivers/STM32F4xx_HAL_Driver/Src/stm32f4xx_hal_rcc.c ****   }
 991:Drivers/STM32F4xx_HAL_Driver/Src/stm32f4xx_hal_rcc.c ****   else
 992:Drivers/STM32F4xx_HAL_Driver/Src/stm32f4xx_hal_rcc.c ****   {
 993:Drivers/STM32F4xx_HAL_Driver/Src/stm32f4xx_hal_rcc.c ****     RCC_OscInitStruct->HSEState = RCC_HSE_OFF;
 994:Drivers/STM32F4xx_HAL_Driver/Src/stm32f4xx_hal_rcc.c ****   }
 995:Drivers/STM32F4xx_HAL_Driver/Src/stm32f4xx_hal_rcc.c **** 
 996:Drivers/STM32F4xx_HAL_Driver/Src/stm32f4xx_hal_rcc.c ****   /* Get the HSI configuration -----------------------------------------------*/
 997:Drivers/STM32F4xx_HAL_Driver/Src/stm32f4xx_hal_rcc.c ****   if((RCC->CR &RCC_CR_HSION) == RCC_CR_HSION)
ARM GAS  /tmp/cc4ImuJe.s 			page 53


 1731              		.loc 1 997 3 is_stmt 1 view .LVU523
 1732              		.loc 1 997 10 is_stmt 0 view .LVU524
 1733 0014 2C4B     		ldr	r3, .L173
 1734 0016 1B68     		ldr	r3, [r3]
 1735              		.loc 1 997 5 view .LVU525
 1736 0018 13F0010F 		tst	r3, #1
 1737 001c 3FD0     		beq	.L164
 998:Drivers/STM32F4xx_HAL_Driver/Src/stm32f4xx_hal_rcc.c ****   {
 999:Drivers/STM32F4xx_HAL_Driver/Src/stm32f4xx_hal_rcc.c ****     RCC_OscInitStruct->HSIState = RCC_HSI_ON;
 1738              		.loc 1 999 5 is_stmt 1 view .LVU526
 1739              		.loc 1 999 33 is_stmt 0 view .LVU527
 1740 001e 0123     		movs	r3, #1
 1741 0020 C360     		str	r3, [r0, #12]
 1742              	.L165:
1000:Drivers/STM32F4xx_HAL_Driver/Src/stm32f4xx_hal_rcc.c ****   }
1001:Drivers/STM32F4xx_HAL_Driver/Src/stm32f4xx_hal_rcc.c ****   else
1002:Drivers/STM32F4xx_HAL_Driver/Src/stm32f4xx_hal_rcc.c ****   {
1003:Drivers/STM32F4xx_HAL_Driver/Src/stm32f4xx_hal_rcc.c ****     RCC_OscInitStruct->HSIState = RCC_HSI_OFF;
1004:Drivers/STM32F4xx_HAL_Driver/Src/stm32f4xx_hal_rcc.c ****   }
1005:Drivers/STM32F4xx_HAL_Driver/Src/stm32f4xx_hal_rcc.c **** 
1006:Drivers/STM32F4xx_HAL_Driver/Src/stm32f4xx_hal_rcc.c ****   RCC_OscInitStruct->HSICalibrationValue = (uint32_t)((RCC->CR &RCC_CR_HSITRIM) >> RCC_CR_HSITRIM_P
 1743              		.loc 1 1006 3 is_stmt 1 view .LVU528
 1744              		.loc 1 1006 59 is_stmt 0 view .LVU529
 1745 0022 294A     		ldr	r2, .L173
 1746 0024 1368     		ldr	r3, [r2]
 1747              		.loc 1 1006 44 view .LVU530
 1748 0026 C3F3C403 		ubfx	r3, r3, #3, #5
 1749              		.loc 1 1006 42 view .LVU531
 1750 002a 0361     		str	r3, [r0, #16]
1007:Drivers/STM32F4xx_HAL_Driver/Src/stm32f4xx_hal_rcc.c **** 
1008:Drivers/STM32F4xx_HAL_Driver/Src/stm32f4xx_hal_rcc.c ****   /* Get the LSE configuration -----------------------------------------------*/
1009:Drivers/STM32F4xx_HAL_Driver/Src/stm32f4xx_hal_rcc.c ****   if((RCC->BDCR &RCC_BDCR_LSEBYP) == RCC_BDCR_LSEBYP)
 1751              		.loc 1 1009 3 is_stmt 1 view .LVU532
 1752              		.loc 1 1009 10 is_stmt 0 view .LVU533
 1753 002c 136F     		ldr	r3, [r2, #112]
 1754              		.loc 1 1009 5 view .LVU534
 1755 002e 13F0040F 		tst	r3, #4
 1756 0032 37D0     		beq	.L166
1010:Drivers/STM32F4xx_HAL_Driver/Src/stm32f4xx_hal_rcc.c ****   {
1011:Drivers/STM32F4xx_HAL_Driver/Src/stm32f4xx_hal_rcc.c ****     RCC_OscInitStruct->LSEState = RCC_LSE_BYPASS;
 1757              		.loc 1 1011 5 is_stmt 1 view .LVU535
 1758              		.loc 1 1011 33 is_stmt 0 view .LVU536
 1759 0034 0523     		movs	r3, #5
 1760 0036 8360     		str	r3, [r0, #8]
 1761              	.L167:
1012:Drivers/STM32F4xx_HAL_Driver/Src/stm32f4xx_hal_rcc.c ****   }
1013:Drivers/STM32F4xx_HAL_Driver/Src/stm32f4xx_hal_rcc.c ****   else if((RCC->BDCR &RCC_BDCR_LSEON) == RCC_BDCR_LSEON)
1014:Drivers/STM32F4xx_HAL_Driver/Src/stm32f4xx_hal_rcc.c ****   {
1015:Drivers/STM32F4xx_HAL_Driver/Src/stm32f4xx_hal_rcc.c ****     RCC_OscInitStruct->LSEState = RCC_LSE_ON;
1016:Drivers/STM32F4xx_HAL_Driver/Src/stm32f4xx_hal_rcc.c ****   }
1017:Drivers/STM32F4xx_HAL_Driver/Src/stm32f4xx_hal_rcc.c ****   else
1018:Drivers/STM32F4xx_HAL_Driver/Src/stm32f4xx_hal_rcc.c ****   {
1019:Drivers/STM32F4xx_HAL_Driver/Src/stm32f4xx_hal_rcc.c ****     RCC_OscInitStruct->LSEState = RCC_LSE_OFF;
1020:Drivers/STM32F4xx_HAL_Driver/Src/stm32f4xx_hal_rcc.c ****   }
1021:Drivers/STM32F4xx_HAL_Driver/Src/stm32f4xx_hal_rcc.c **** 
1022:Drivers/STM32F4xx_HAL_Driver/Src/stm32f4xx_hal_rcc.c ****   /* Get the LSI configuration -----------------------------------------------*/
1023:Drivers/STM32F4xx_HAL_Driver/Src/stm32f4xx_hal_rcc.c ****   if((RCC->CSR &RCC_CSR_LSION) == RCC_CSR_LSION)
ARM GAS  /tmp/cc4ImuJe.s 			page 54


 1762              		.loc 1 1023 3 is_stmt 1 view .LVU537
 1763              		.loc 1 1023 10 is_stmt 0 view .LVU538
 1764 0038 234B     		ldr	r3, .L173
 1765 003a 5B6F     		ldr	r3, [r3, #116]
 1766              		.loc 1 1023 5 view .LVU539
 1767 003c 13F0010F 		tst	r3, #1
 1768 0040 3BD0     		beq	.L169
1024:Drivers/STM32F4xx_HAL_Driver/Src/stm32f4xx_hal_rcc.c ****   {
1025:Drivers/STM32F4xx_HAL_Driver/Src/stm32f4xx_hal_rcc.c ****     RCC_OscInitStruct->LSIState = RCC_LSI_ON;
 1769              		.loc 1 1025 5 is_stmt 1 view .LVU540
 1770              		.loc 1 1025 33 is_stmt 0 view .LVU541
 1771 0042 0123     		movs	r3, #1
 1772 0044 4361     		str	r3, [r0, #20]
 1773              	.L170:
1026:Drivers/STM32F4xx_HAL_Driver/Src/stm32f4xx_hal_rcc.c ****   }
1027:Drivers/STM32F4xx_HAL_Driver/Src/stm32f4xx_hal_rcc.c ****   else
1028:Drivers/STM32F4xx_HAL_Driver/Src/stm32f4xx_hal_rcc.c ****   {
1029:Drivers/STM32F4xx_HAL_Driver/Src/stm32f4xx_hal_rcc.c ****     RCC_OscInitStruct->LSIState = RCC_LSI_OFF;
1030:Drivers/STM32F4xx_HAL_Driver/Src/stm32f4xx_hal_rcc.c ****   }
1031:Drivers/STM32F4xx_HAL_Driver/Src/stm32f4xx_hal_rcc.c **** 
1032:Drivers/STM32F4xx_HAL_Driver/Src/stm32f4xx_hal_rcc.c ****   /* Get the PLL configuration -----------------------------------------------*/
1033:Drivers/STM32F4xx_HAL_Driver/Src/stm32f4xx_hal_rcc.c ****   if((RCC->CR &RCC_CR_PLLON) == RCC_CR_PLLON)
 1774              		.loc 1 1033 3 is_stmt 1 view .LVU542
 1775              		.loc 1 1033 10 is_stmt 0 view .LVU543
 1776 0046 204B     		ldr	r3, .L173
 1777 0048 1B68     		ldr	r3, [r3]
 1778              		.loc 1 1033 5 view .LVU544
 1779 004a 13F0807F 		tst	r3, #16777216
 1780 004e 37D0     		beq	.L171
1034:Drivers/STM32F4xx_HAL_Driver/Src/stm32f4xx_hal_rcc.c ****   {
1035:Drivers/STM32F4xx_HAL_Driver/Src/stm32f4xx_hal_rcc.c ****     RCC_OscInitStruct->PLL.PLLState = RCC_PLL_ON;
 1781              		.loc 1 1035 5 is_stmt 1 view .LVU545
 1782              		.loc 1 1035 37 is_stmt 0 view .LVU546
 1783 0050 0223     		movs	r3, #2
 1784 0052 8361     		str	r3, [r0, #24]
 1785              	.L172:
1036:Drivers/STM32F4xx_HAL_Driver/Src/stm32f4xx_hal_rcc.c ****   }
1037:Drivers/STM32F4xx_HAL_Driver/Src/stm32f4xx_hal_rcc.c ****   else
1038:Drivers/STM32F4xx_HAL_Driver/Src/stm32f4xx_hal_rcc.c ****   {
1039:Drivers/STM32F4xx_HAL_Driver/Src/stm32f4xx_hal_rcc.c ****     RCC_OscInitStruct->PLL.PLLState = RCC_PLL_OFF;
1040:Drivers/STM32F4xx_HAL_Driver/Src/stm32f4xx_hal_rcc.c ****   }
1041:Drivers/STM32F4xx_HAL_Driver/Src/stm32f4xx_hal_rcc.c ****   RCC_OscInitStruct->PLL.PLLSource = (uint32_t)(RCC->PLLCFGR & RCC_PLLCFGR_PLLSRC);
 1786              		.loc 1 1041 3 is_stmt 1 view .LVU547
 1787              		.loc 1 1041 52 is_stmt 0 view .LVU548
 1788 0054 1C4A     		ldr	r2, .L173
 1789 0056 5368     		ldr	r3, [r2, #4]
 1790              		.loc 1 1041 38 view .LVU549
 1791 0058 03F48003 		and	r3, r3, #4194304
 1792              		.loc 1 1041 36 view .LVU550
 1793 005c C361     		str	r3, [r0, #28]
1042:Drivers/STM32F4xx_HAL_Driver/Src/stm32f4xx_hal_rcc.c ****   RCC_OscInitStruct->PLL.PLLM = (uint32_t)(RCC->PLLCFGR & RCC_PLLCFGR_PLLM);
 1794              		.loc 1 1042 3 is_stmt 1 view .LVU551
 1795              		.loc 1 1042 47 is_stmt 0 view .LVU552
 1796 005e 5368     		ldr	r3, [r2, #4]
 1797              		.loc 1 1042 33 view .LVU553
 1798 0060 03F03F03 		and	r3, r3, #63
 1799              		.loc 1 1042 31 view .LVU554
ARM GAS  /tmp/cc4ImuJe.s 			page 55


 1800 0064 0362     		str	r3, [r0, #32]
1043:Drivers/STM32F4xx_HAL_Driver/Src/stm32f4xx_hal_rcc.c ****   RCC_OscInitStruct->PLL.PLLN = (uint32_t)((RCC->PLLCFGR & RCC_PLLCFGR_PLLN) >> RCC_PLLCFGR_PLLN_Po
 1801              		.loc 1 1043 3 is_stmt 1 view .LVU555
 1802              		.loc 1 1043 48 is_stmt 0 view .LVU556
 1803 0066 5368     		ldr	r3, [r2, #4]
 1804              		.loc 1 1043 33 view .LVU557
 1805 0068 C3F38813 		ubfx	r3, r3, #6, #9
 1806              		.loc 1 1043 31 view .LVU558
 1807 006c 4362     		str	r3, [r0, #36]
1044:Drivers/STM32F4xx_HAL_Driver/Src/stm32f4xx_hal_rcc.c ****   RCC_OscInitStruct->PLL.PLLP = (uint32_t)((((RCC->PLLCFGR & RCC_PLLCFGR_PLLP) + RCC_PLLCFGR_PLLP_0
 1808              		.loc 1 1044 3 is_stmt 1 view .LVU559
 1809              		.loc 1 1044 50 is_stmt 0 view .LVU560
 1810 006e 5368     		ldr	r3, [r2, #4]
 1811              		.loc 1 1044 60 view .LVU561
 1812 0070 03F44033 		and	r3, r3, #196608
 1813              		.loc 1 1044 80 view .LVU562
 1814 0074 03F58033 		add	r3, r3, #65536
 1815              		.loc 1 1044 33 view .LVU563
 1816 0078 DB0B     		lsrs	r3, r3, #15
 1817              		.loc 1 1044 31 view .LVU564
 1818 007a 8362     		str	r3, [r0, #40]
1045:Drivers/STM32F4xx_HAL_Driver/Src/stm32f4xx_hal_rcc.c ****   RCC_OscInitStruct->PLL.PLLQ = (uint32_t)((RCC->PLLCFGR & RCC_PLLCFGR_PLLQ) >> RCC_PLLCFGR_PLLQ_Po
 1819              		.loc 1 1045 3 is_stmt 1 view .LVU565
 1820              		.loc 1 1045 48 is_stmt 0 view .LVU566
 1821 007c 5368     		ldr	r3, [r2, #4]
 1822              		.loc 1 1045 33 view .LVU567
 1823 007e C3F30363 		ubfx	r3, r3, #24, #4
 1824              		.loc 1 1045 31 view .LVU568
 1825 0082 C362     		str	r3, [r0, #44]
1046:Drivers/STM32F4xx_HAL_Driver/Src/stm32f4xx_hal_rcc.c **** }
 1826              		.loc 1 1046 1 view .LVU569
 1827 0084 7047     		bx	lr
 1828              	.L161:
 987:Drivers/STM32F4xx_HAL_Driver/Src/stm32f4xx_hal_rcc.c ****   {
 1829              		.loc 1 987 8 is_stmt 1 view .LVU570
 987:Drivers/STM32F4xx_HAL_Driver/Src/stm32f4xx_hal_rcc.c ****   {
 1830              		.loc 1 987 15 is_stmt 0 view .LVU571
 1831 0086 104B     		ldr	r3, .L173
 1832 0088 1B68     		ldr	r3, [r3]
 987:Drivers/STM32F4xx_HAL_Driver/Src/stm32f4xx_hal_rcc.c ****   {
 1833              		.loc 1 987 10 view .LVU572
 1834 008a 13F4803F 		tst	r3, #65536
 1835 008e 03D0     		beq	.L163
 989:Drivers/STM32F4xx_HAL_Driver/Src/stm32f4xx_hal_rcc.c ****   }
 1836              		.loc 1 989 5 is_stmt 1 view .LVU573
 989:Drivers/STM32F4xx_HAL_Driver/Src/stm32f4xx_hal_rcc.c ****   }
 1837              		.loc 1 989 33 is_stmt 0 view .LVU574
 1838 0090 4FF48033 		mov	r3, #65536
 1839 0094 4360     		str	r3, [r0, #4]
 1840 0096 BDE7     		b	.L162
 1841              	.L163:
 993:Drivers/STM32F4xx_HAL_Driver/Src/stm32f4xx_hal_rcc.c ****   }
 1842              		.loc 1 993 5 is_stmt 1 view .LVU575
 993:Drivers/STM32F4xx_HAL_Driver/Src/stm32f4xx_hal_rcc.c ****   }
 1843              		.loc 1 993 33 is_stmt 0 view .LVU576
 1844 0098 0023     		movs	r3, #0
 1845 009a 4360     		str	r3, [r0, #4]
ARM GAS  /tmp/cc4ImuJe.s 			page 56


 1846 009c BAE7     		b	.L162
 1847              	.L164:
1003:Drivers/STM32F4xx_HAL_Driver/Src/stm32f4xx_hal_rcc.c ****   }
 1848              		.loc 1 1003 5 is_stmt 1 view .LVU577
1003:Drivers/STM32F4xx_HAL_Driver/Src/stm32f4xx_hal_rcc.c ****   }
 1849              		.loc 1 1003 33 is_stmt 0 view .LVU578
 1850 009e 0023     		movs	r3, #0
 1851 00a0 C360     		str	r3, [r0, #12]
 1852 00a2 BEE7     		b	.L165
 1853              	.L166:
1013:Drivers/STM32F4xx_HAL_Driver/Src/stm32f4xx_hal_rcc.c ****   {
 1854              		.loc 1 1013 8 is_stmt 1 view .LVU579
1013:Drivers/STM32F4xx_HAL_Driver/Src/stm32f4xx_hal_rcc.c ****   {
 1855              		.loc 1 1013 15 is_stmt 0 view .LVU580
 1856 00a4 084B     		ldr	r3, .L173
 1857 00a6 1B6F     		ldr	r3, [r3, #112]
1013:Drivers/STM32F4xx_HAL_Driver/Src/stm32f4xx_hal_rcc.c ****   {
 1858              		.loc 1 1013 10 view .LVU581
 1859 00a8 13F0010F 		tst	r3, #1
 1860 00ac 02D0     		beq	.L168
1015:Drivers/STM32F4xx_HAL_Driver/Src/stm32f4xx_hal_rcc.c ****   }
 1861              		.loc 1 1015 5 is_stmt 1 view .LVU582
1015:Drivers/STM32F4xx_HAL_Driver/Src/stm32f4xx_hal_rcc.c ****   }
 1862              		.loc 1 1015 33 is_stmt 0 view .LVU583
 1863 00ae 0123     		movs	r3, #1
 1864 00b0 8360     		str	r3, [r0, #8]
 1865 00b2 C1E7     		b	.L167
 1866              	.L168:
1019:Drivers/STM32F4xx_HAL_Driver/Src/stm32f4xx_hal_rcc.c ****   }
 1867              		.loc 1 1019 5 is_stmt 1 view .LVU584
1019:Drivers/STM32F4xx_HAL_Driver/Src/stm32f4xx_hal_rcc.c ****   }
 1868              		.loc 1 1019 33 is_stmt 0 view .LVU585
 1869 00b4 0023     		movs	r3, #0
 1870 00b6 8360     		str	r3, [r0, #8]
 1871 00b8 BEE7     		b	.L167
 1872              	.L169:
1029:Drivers/STM32F4xx_HAL_Driver/Src/stm32f4xx_hal_rcc.c ****   }
 1873              		.loc 1 1029 5 is_stmt 1 view .LVU586
1029:Drivers/STM32F4xx_HAL_Driver/Src/stm32f4xx_hal_rcc.c ****   }
 1874              		.loc 1 1029 33 is_stmt 0 view .LVU587
 1875 00ba 0023     		movs	r3, #0
 1876 00bc 4361     		str	r3, [r0, #20]
 1877 00be C2E7     		b	.L170
 1878              	.L171:
1039:Drivers/STM32F4xx_HAL_Driver/Src/stm32f4xx_hal_rcc.c ****   }
 1879              		.loc 1 1039 5 is_stmt 1 view .LVU588
1039:Drivers/STM32F4xx_HAL_Driver/Src/stm32f4xx_hal_rcc.c ****   }
 1880              		.loc 1 1039 37 is_stmt 0 view .LVU589
 1881 00c0 0123     		movs	r3, #1
 1882 00c2 8361     		str	r3, [r0, #24]
 1883 00c4 C6E7     		b	.L172
 1884              	.L174:
 1885 00c6 00BF     		.align	2
 1886              	.L173:
 1887 00c8 00380240 		.word	1073887232
 1888              		.cfi_endproc
 1889              	.LFE140:
ARM GAS  /tmp/cc4ImuJe.s 			page 57


 1891              		.section	.text.HAL_RCC_GetClockConfig,"ax",%progbits
 1892              		.align	1
 1893              		.global	HAL_RCC_GetClockConfig
 1894              		.syntax unified
 1895              		.thumb
 1896              		.thumb_func
 1898              	HAL_RCC_GetClockConfig:
 1899              	.LVL106:
 1900              	.LFB141:
1047:Drivers/STM32F4xx_HAL_Driver/Src/stm32f4xx_hal_rcc.c **** 
1048:Drivers/STM32F4xx_HAL_Driver/Src/stm32f4xx_hal_rcc.c **** /**
1049:Drivers/STM32F4xx_HAL_Driver/Src/stm32f4xx_hal_rcc.c ****   * @brief  Configures the RCC_ClkInitStruct according to the internal
1050:Drivers/STM32F4xx_HAL_Driver/Src/stm32f4xx_hal_rcc.c ****   * RCC configuration registers.
1051:Drivers/STM32F4xx_HAL_Driver/Src/stm32f4xx_hal_rcc.c ****   * @param  RCC_ClkInitStruct pointer to an RCC_ClkInitTypeDef structure that
1052:Drivers/STM32F4xx_HAL_Driver/Src/stm32f4xx_hal_rcc.c ****   * will be configured.
1053:Drivers/STM32F4xx_HAL_Driver/Src/stm32f4xx_hal_rcc.c ****   * @param  pFLatency Pointer on the Flash Latency.
1054:Drivers/STM32F4xx_HAL_Driver/Src/stm32f4xx_hal_rcc.c ****   * @retval None
1055:Drivers/STM32F4xx_HAL_Driver/Src/stm32f4xx_hal_rcc.c ****   */
1056:Drivers/STM32F4xx_HAL_Driver/Src/stm32f4xx_hal_rcc.c **** void HAL_RCC_GetClockConfig(RCC_ClkInitTypeDef  *RCC_ClkInitStruct, uint32_t *pFLatency)
1057:Drivers/STM32F4xx_HAL_Driver/Src/stm32f4xx_hal_rcc.c **** {
 1901              		.loc 1 1057 1 is_stmt 1 view -0
 1902              		.cfi_startproc
 1903              		@ args = 0, pretend = 0, frame = 0
 1904              		@ frame_needed = 0, uses_anonymous_args = 0
 1905              		@ link register save eliminated.
1058:Drivers/STM32F4xx_HAL_Driver/Src/stm32f4xx_hal_rcc.c ****   /* Set all possible values for the Clock type parameter --------------------*/
1059:Drivers/STM32F4xx_HAL_Driver/Src/stm32f4xx_hal_rcc.c ****   RCC_ClkInitStruct->ClockType = RCC_CLOCKTYPE_SYSCLK | RCC_CLOCKTYPE_HCLK | RCC_CLOCKTYPE_PCLK1 | 
 1906              		.loc 1 1059 3 view .LVU591
 1907              		.loc 1 1059 32 is_stmt 0 view .LVU592
 1908 0000 0F23     		movs	r3, #15
 1909 0002 0360     		str	r3, [r0]
1060:Drivers/STM32F4xx_HAL_Driver/Src/stm32f4xx_hal_rcc.c **** 
1061:Drivers/STM32F4xx_HAL_Driver/Src/stm32f4xx_hal_rcc.c ****   /* Get the SYSCLK configuration --------------------------------------------*/
1062:Drivers/STM32F4xx_HAL_Driver/Src/stm32f4xx_hal_rcc.c ****   RCC_ClkInitStruct->SYSCLKSource = (uint32_t)(RCC->CFGR & RCC_CFGR_SW);
 1910              		.loc 1 1062 3 is_stmt 1 view .LVU593
 1911              		.loc 1 1062 51 is_stmt 0 view .LVU594
 1912 0004 0B4B     		ldr	r3, .L176
 1913 0006 9A68     		ldr	r2, [r3, #8]
 1914              		.loc 1 1062 37 view .LVU595
 1915 0008 02F00302 		and	r2, r2, #3
 1916              		.loc 1 1062 35 view .LVU596
 1917 000c 4260     		str	r2, [r0, #4]
1063:Drivers/STM32F4xx_HAL_Driver/Src/stm32f4xx_hal_rcc.c **** 
1064:Drivers/STM32F4xx_HAL_Driver/Src/stm32f4xx_hal_rcc.c ****   /* Get the HCLK configuration ----------------------------------------------*/
1065:Drivers/STM32F4xx_HAL_Driver/Src/stm32f4xx_hal_rcc.c ****   RCC_ClkInitStruct->AHBCLKDivider = (uint32_t)(RCC->CFGR & RCC_CFGR_HPRE);
 1918              		.loc 1 1065 3 is_stmt 1 view .LVU597
 1919              		.loc 1 1065 52 is_stmt 0 view .LVU598
 1920 000e 9A68     		ldr	r2, [r3, #8]
 1921              		.loc 1 1065 38 view .LVU599
 1922 0010 02F0F002 		and	r2, r2, #240
 1923              		.loc 1 1065 36 view .LVU600
 1924 0014 8260     		str	r2, [r0, #8]
1066:Drivers/STM32F4xx_HAL_Driver/Src/stm32f4xx_hal_rcc.c **** 
1067:Drivers/STM32F4xx_HAL_Driver/Src/stm32f4xx_hal_rcc.c ****   /* Get the APB1 configuration ----------------------------------------------*/
1068:Drivers/STM32F4xx_HAL_Driver/Src/stm32f4xx_hal_rcc.c ****   RCC_ClkInitStruct->APB1CLKDivider = (uint32_t)(RCC->CFGR & RCC_CFGR_PPRE1);
 1925              		.loc 1 1068 3 is_stmt 1 view .LVU601
 1926              		.loc 1 1068 53 is_stmt 0 view .LVU602
ARM GAS  /tmp/cc4ImuJe.s 			page 58


 1927 0016 9A68     		ldr	r2, [r3, #8]
 1928              		.loc 1 1068 39 view .LVU603
 1929 0018 02F4E052 		and	r2, r2, #7168
 1930              		.loc 1 1068 37 view .LVU604
 1931 001c C260     		str	r2, [r0, #12]
1069:Drivers/STM32F4xx_HAL_Driver/Src/stm32f4xx_hal_rcc.c **** 
1070:Drivers/STM32F4xx_HAL_Driver/Src/stm32f4xx_hal_rcc.c ****   /* Get the APB2 configuration ----------------------------------------------*/
1071:Drivers/STM32F4xx_HAL_Driver/Src/stm32f4xx_hal_rcc.c ****   RCC_ClkInitStruct->APB2CLKDivider = (uint32_t)((RCC->CFGR & RCC_CFGR_PPRE2) >> 3U);
 1932              		.loc 1 1071 3 is_stmt 1 view .LVU605
 1933              		.loc 1 1071 54 is_stmt 0 view .LVU606
 1934 001e 9B68     		ldr	r3, [r3, #8]
 1935              		.loc 1 1071 39 view .LVU607
 1936 0020 DB08     		lsrs	r3, r3, #3
 1937 0022 03F4E053 		and	r3, r3, #7168
 1938              		.loc 1 1071 37 view .LVU608
 1939 0026 0361     		str	r3, [r0, #16]
1072:Drivers/STM32F4xx_HAL_Driver/Src/stm32f4xx_hal_rcc.c **** 
1073:Drivers/STM32F4xx_HAL_Driver/Src/stm32f4xx_hal_rcc.c ****   /* Get the Flash Wait State (Latency) configuration ------------------------*/
1074:Drivers/STM32F4xx_HAL_Driver/Src/stm32f4xx_hal_rcc.c ****   *pFLatency = (uint32_t)(FLASH->ACR & FLASH_ACR_LATENCY);
 1940              		.loc 1 1074 3 is_stmt 1 view .LVU609
 1941              		.loc 1 1074 32 is_stmt 0 view .LVU610
 1942 0028 034B     		ldr	r3, .L176+4
 1943 002a 1B68     		ldr	r3, [r3]
 1944              		.loc 1 1074 16 view .LVU611
 1945 002c 03F00F03 		and	r3, r3, #15
 1946              		.loc 1 1074 14 view .LVU612
 1947 0030 0B60     		str	r3, [r1]
1075:Drivers/STM32F4xx_HAL_Driver/Src/stm32f4xx_hal_rcc.c **** }
 1948              		.loc 1 1075 1 view .LVU613
 1949 0032 7047     		bx	lr
 1950              	.L177:
 1951              		.align	2
 1952              	.L176:
 1953 0034 00380240 		.word	1073887232
 1954 0038 003C0240 		.word	1073888256
 1955              		.cfi_endproc
 1956              	.LFE141:
 1958              		.section	.text.HAL_RCC_CSSCallback,"ax",%progbits
 1959              		.align	1
 1960              		.weak	HAL_RCC_CSSCallback
 1961              		.syntax unified
 1962              		.thumb
 1963              		.thumb_func
 1965              	HAL_RCC_CSSCallback:
 1966              	.LFB143:
1076:Drivers/STM32F4xx_HAL_Driver/Src/stm32f4xx_hal_rcc.c **** 
1077:Drivers/STM32F4xx_HAL_Driver/Src/stm32f4xx_hal_rcc.c **** /**
1078:Drivers/STM32F4xx_HAL_Driver/Src/stm32f4xx_hal_rcc.c ****   * @brief This function handles the RCC CSS interrupt request.
1079:Drivers/STM32F4xx_HAL_Driver/Src/stm32f4xx_hal_rcc.c ****   * @note This API should be called under the NMI_Handler().
1080:Drivers/STM32F4xx_HAL_Driver/Src/stm32f4xx_hal_rcc.c ****   * @retval None
1081:Drivers/STM32F4xx_HAL_Driver/Src/stm32f4xx_hal_rcc.c ****   */
1082:Drivers/STM32F4xx_HAL_Driver/Src/stm32f4xx_hal_rcc.c **** void HAL_RCC_NMI_IRQHandler(void)
1083:Drivers/STM32F4xx_HAL_Driver/Src/stm32f4xx_hal_rcc.c **** {
1084:Drivers/STM32F4xx_HAL_Driver/Src/stm32f4xx_hal_rcc.c ****   /* Check RCC CSSF flag  */
1085:Drivers/STM32F4xx_HAL_Driver/Src/stm32f4xx_hal_rcc.c ****   if(__HAL_RCC_GET_IT(RCC_IT_CSS))
1086:Drivers/STM32F4xx_HAL_Driver/Src/stm32f4xx_hal_rcc.c ****   {
1087:Drivers/STM32F4xx_HAL_Driver/Src/stm32f4xx_hal_rcc.c ****     /* RCC Clock Security System interrupt user callback */
ARM GAS  /tmp/cc4ImuJe.s 			page 59


1088:Drivers/STM32F4xx_HAL_Driver/Src/stm32f4xx_hal_rcc.c ****     HAL_RCC_CSSCallback();
1089:Drivers/STM32F4xx_HAL_Driver/Src/stm32f4xx_hal_rcc.c **** 
1090:Drivers/STM32F4xx_HAL_Driver/Src/stm32f4xx_hal_rcc.c ****     /* Clear RCC CSS pending bit */
1091:Drivers/STM32F4xx_HAL_Driver/Src/stm32f4xx_hal_rcc.c ****     __HAL_RCC_CLEAR_IT(RCC_IT_CSS);
1092:Drivers/STM32F4xx_HAL_Driver/Src/stm32f4xx_hal_rcc.c ****   }
1093:Drivers/STM32F4xx_HAL_Driver/Src/stm32f4xx_hal_rcc.c **** }
1094:Drivers/STM32F4xx_HAL_Driver/Src/stm32f4xx_hal_rcc.c **** 
1095:Drivers/STM32F4xx_HAL_Driver/Src/stm32f4xx_hal_rcc.c **** /**
1096:Drivers/STM32F4xx_HAL_Driver/Src/stm32f4xx_hal_rcc.c ****   * @brief  RCC Clock Security System interrupt callback
1097:Drivers/STM32F4xx_HAL_Driver/Src/stm32f4xx_hal_rcc.c ****   * @retval None
1098:Drivers/STM32F4xx_HAL_Driver/Src/stm32f4xx_hal_rcc.c ****   */
1099:Drivers/STM32F4xx_HAL_Driver/Src/stm32f4xx_hal_rcc.c **** __weak void HAL_RCC_CSSCallback(void)
1100:Drivers/STM32F4xx_HAL_Driver/Src/stm32f4xx_hal_rcc.c **** {
 1967              		.loc 1 1100 1 is_stmt 1 view -0
 1968              		.cfi_startproc
 1969              		@ args = 0, pretend = 0, frame = 0
 1970              		@ frame_needed = 0, uses_anonymous_args = 0
 1971              		@ link register save eliminated.
1101:Drivers/STM32F4xx_HAL_Driver/Src/stm32f4xx_hal_rcc.c ****   /* NOTE : This function Should not be modified, when the callback is needed,
1102:Drivers/STM32F4xx_HAL_Driver/Src/stm32f4xx_hal_rcc.c ****             the HAL_RCC_CSSCallback could be implemented in the user file
1103:Drivers/STM32F4xx_HAL_Driver/Src/stm32f4xx_hal_rcc.c ****    */
1104:Drivers/STM32F4xx_HAL_Driver/Src/stm32f4xx_hal_rcc.c **** }
 1972              		.loc 1 1104 1 view .LVU615
 1973 0000 7047     		bx	lr
 1974              		.cfi_endproc
 1975              	.LFE143:
 1977              		.section	.text.HAL_RCC_NMI_IRQHandler,"ax",%progbits
 1978              		.align	1
 1979              		.global	HAL_RCC_NMI_IRQHandler
 1980              		.syntax unified
 1981              		.thumb
 1982              		.thumb_func
 1984              	HAL_RCC_NMI_IRQHandler:
 1985              	.LFB142:
1083:Drivers/STM32F4xx_HAL_Driver/Src/stm32f4xx_hal_rcc.c ****   /* Check RCC CSSF flag  */
 1986              		.loc 1 1083 1 view -0
 1987              		.cfi_startproc
 1988              		@ args = 0, pretend = 0, frame = 0
 1989              		@ frame_needed = 0, uses_anonymous_args = 0
 1990 0000 08B5     		push	{r3, lr}
 1991              		.cfi_def_cfa_offset 8
 1992              		.cfi_offset 3, -8
 1993              		.cfi_offset 14, -4
1085:Drivers/STM32F4xx_HAL_Driver/Src/stm32f4xx_hal_rcc.c ****   {
 1994              		.loc 1 1085 3 view .LVU617
1085:Drivers/STM32F4xx_HAL_Driver/Src/stm32f4xx_hal_rcc.c ****   {
 1995              		.loc 1 1085 6 is_stmt 0 view .LVU618
 1996 0002 064B     		ldr	r3, .L183
 1997 0004 DB68     		ldr	r3, [r3, #12]
1085:Drivers/STM32F4xx_HAL_Driver/Src/stm32f4xx_hal_rcc.c ****   {
 1998              		.loc 1 1085 5 view .LVU619
 1999 0006 13F0800F 		tst	r3, #128
 2000 000a 00D1     		bne	.L182
 2001              	.L179:
1093:Drivers/STM32F4xx_HAL_Driver/Src/stm32f4xx_hal_rcc.c **** 
 2002              		.loc 1 1093 1 view .LVU620
 2003 000c 08BD     		pop	{r3, pc}
ARM GAS  /tmp/cc4ImuJe.s 			page 60


 2004              	.L182:
1088:Drivers/STM32F4xx_HAL_Driver/Src/stm32f4xx_hal_rcc.c **** 
 2005              		.loc 1 1088 5 is_stmt 1 view .LVU621
 2006 000e FFF7FEFF 		bl	HAL_RCC_CSSCallback
 2007              	.LVL107:
1091:Drivers/STM32F4xx_HAL_Driver/Src/stm32f4xx_hal_rcc.c ****   }
 2008              		.loc 1 1091 5 view .LVU622
 2009 0012 024B     		ldr	r3, .L183
 2010 0014 8022     		movs	r2, #128
 2011 0016 9A73     		strb	r2, [r3, #14]
1093:Drivers/STM32F4xx_HAL_Driver/Src/stm32f4xx_hal_rcc.c **** 
 2012              		.loc 1 1093 1 is_stmt 0 view .LVU623
 2013 0018 F8E7     		b	.L179
 2014              	.L184:
 2015 001a 00BF     		.align	2
 2016              	.L183:
 2017 001c 00380240 		.word	1073887232
 2018              		.cfi_endproc
 2019              	.LFE142:
 2021              		.text
 2022              	.Letext0:
 2023              		.file 2 "/home/nil/.config/VSCodium/User/globalStorage/bmd.stm32-for-vscode/@xpack-dev-tools/arm-n
 2024              		.file 3 "/home/nil/.config/VSCodium/User/globalStorage/bmd.stm32-for-vscode/@xpack-dev-tools/arm-n
 2025              		.file 4 "Drivers/CMSIS/Device/ST/STM32F4xx/Include/system_stm32f4xx.h"
 2026              		.file 5 "Drivers/CMSIS/Device/ST/STM32F4xx/Include/stm32f446xx.h"
 2027              		.file 6 "Drivers/CMSIS/Device/ST/STM32F4xx/Include/stm32f4xx.h"
 2028              		.file 7 "Drivers/STM32F4xx_HAL_Driver/Inc/stm32f4xx_hal_def.h"
 2029              		.file 8 "Drivers/STM32F4xx_HAL_Driver/Inc/stm32f4xx_hal_rcc_ex.h"
 2030              		.file 9 "Drivers/STM32F4xx_HAL_Driver/Inc/stm32f4xx_hal_rcc.h"
 2031              		.file 10 "Drivers/STM32F4xx_HAL_Driver/Inc/stm32f4xx_hal_gpio.h"
 2032              		.file 11 "Drivers/STM32F4xx_HAL_Driver/Inc/stm32f4xx_hal.h"
ARM GAS  /tmp/cc4ImuJe.s 			page 61

